Archive member included because of file (symbol)

C:/Users/spenc/Dropbox/N64_DEV_STUFF/n64dev/lib\libdragon.a(interrupt.o)
                              LibN64.o (init_interrupts)
C:/Users/spenc/Dropbox/N64_DEV_STUFF/n64dev/lib\libdragon.a(entrypoint.o)
                              (_start)
C:/Users/spenc/Dropbox/N64_DEV_STUFF/n64dev/lib\libdragon.a(dragonfs.o)
                              LibN64.o (dfs_init)
C:/Users/spenc/Dropbox/N64_DEV_STUFF/n64dev/lib\libdragon.a(display.o)
                              LibN64.o (display_init)
C:/Users/spenc/Dropbox/N64_DEV_STUFF/n64dev/lib\libdragon.a(controller.o)
                              LibN64.o (controller_init)
C:/Users/spenc/Dropbox/N64_DEV_STUFF/n64dev/lib\libdragon.a(graphics.o)
                              LibN64.o (graphics_set_color)
C:/Users/spenc/Dropbox/N64_DEV_STUFF/n64dev/lib\libdragon.a(dma.o)
                              C:/Users/spenc/Dropbox/N64_DEV_STUFF/n64dev/lib\libdragon.a(dragonfs.o) (dma_read)
C:/Users/spenc/Dropbox/N64_DEV_STUFF/n64dev/lib\libdragon.a(n64sys.o)
                              C:/Users/spenc/Dropbox/N64_DEV_STUFF/n64dev/lib\libdragon.a(dragonfs.o) (data_cache_hit_invalidate)
C:/Users/spenc/Dropbox/N64_DEV_STUFF/n64dev/lib\libdragon.a(inthandler.o)
                              C:/Users/spenc/Dropbox/N64_DEV_STUFF/n64dev/lib\libdragon.a(entrypoint.o) (inthandler)
C:/Users/spenc/Dropbox/N64_DEV_STUFF/n64dev/lib\libdragon.a(exception.o)
                              C:/Users/spenc/Dropbox/N64_DEV_STUFF/n64dev/lib\libdragon.a(inthandler.o) (__onCriticalException)
C:/Users/spenc/Dropbox/N64_DEV_STUFF/n64dev/mips64-elf/lib\libc.a(lib_a-malloc.o)
                              C:/Users/spenc/Dropbox/N64_DEV_STUFF/n64dev/lib\libdragon.a(interrupt.o) (free)
C:/Users/spenc/Dropbox/N64_DEV_STUFF/n64dev/mips64-elf/lib\libc.a(lib_a-mallocr.o)
                              C:/Users/spenc/Dropbox/N64_DEV_STUFF/n64dev/mips64-elf/lib\libc.a(lib_a-malloc.o) (_malloc_r)
C:/Users/spenc/Dropbox/N64_DEV_STUFF/n64dev/mips64-elf/lib\libc.a(lib_a-memcpy.o)
                              C:/Users/spenc/Dropbox/N64_DEV_STUFF/n64dev/lib\libdragon.a(dragonfs.o) (memcpy)
C:/Users/spenc/Dropbox/N64_DEV_STUFF/n64dev/mips64-elf/lib\libc.a(lib_a-memset.o)
                              C:/Users/spenc/Dropbox/N64_DEV_STUFF/n64dev/lib\libdragon.a(dragonfs.o) (memset)
C:/Users/spenc/Dropbox/N64_DEV_STUFF/n64dev/mips64-elf/lib\libc.a(lib_a-mlock.o)
                              C:/Users/spenc/Dropbox/N64_DEV_STUFF/n64dev/mips64-elf/lib\libc.a(lib_a-mallocr.o) (__malloc_lock)
C:/Users/spenc/Dropbox/N64_DEV_STUFF/n64dev/mips64-elf/lib\libc.a(lib_a-sbrkr.o)
                              C:/Users/spenc/Dropbox/N64_DEV_STUFF/n64dev/mips64-elf/lib\libc.a(lib_a-mallocr.o) (_sbrk_r)
C:/Users/spenc/Dropbox/N64_DEV_STUFF/n64dev/mips64-elf/lib\libc.a(lib_a-strcmp.o)
                              C:/Users/spenc/Dropbox/N64_DEV_STUFF/n64dev/lib\libdragon.a(dragonfs.o) (strcmp)
C:/Users/spenc/Dropbox/N64_DEV_STUFF/n64dev/mips64-elf/lib\libc.a(lib_a-strcpy.o)
                              C:/Users/spenc/Dropbox/N64_DEV_STUFF/n64dev/lib\libdragon.a(dragonfs.o) (strcpy)
C:/Users/spenc/Dropbox/N64_DEV_STUFF/n64dev/mips64-elf/lib\libc.a(lib_a-freer.o)
                              C:/Users/spenc/Dropbox/N64_DEV_STUFF/n64dev/mips64-elf/lib\libc.a(lib_a-malloc.o) (_free_r)
C:/Users/spenc/Dropbox/N64_DEV_STUFF/n64dev/mips64-elf/lib\libc.a(lib_a-impure.o)
                              C:/Users/spenc/Dropbox/N64_DEV_STUFF/n64dev/mips64-elf/lib\libc.a(lib_a-malloc.o) (_impure_ptr)
C:/Users/spenc/Dropbox/N64_DEV_STUFF/n64dev/mips64-elf/lib\libc.a(lib_a-reent.o)
                              C:/Users/spenc/Dropbox/N64_DEV_STUFF/n64dev/mips64-elf/lib\libc.a(lib_a-sbrkr.o) (errno)
C:/Users/spenc/Dropbox/N64_DEV_STUFF/n64dev/lib\libdragonsys.a(system.o)
                              C:/Users/spenc/Dropbox/N64_DEV_STUFF/n64dev/lib\libdragon.a(dragonfs.o) (attach_filesystem)

Allocating common symbols
Common symbol       size              file

__width             0x4               C:/Users/spenc/Dropbox/N64_DEV_STUFF/n64dev/lib\libdragon.a(display.o)
__bitdepth          0x4               C:/Users/spenc/Dropbox/N64_DEV_STUFF/n64dev/lib\libdragon.a(display.o)
errno               0x4               C:/Users/spenc/Dropbox/N64_DEV_STUFF/n64dev/mips64-elf/lib\libc.a(lib_a-reent.o)
__height            0x4               C:/Users/spenc/Dropbox/N64_DEV_STUFF/n64dev/lib\libdragon.a(display.o)
__registers         0x70              C:/Users/spenc/Dropbox/N64_DEV_STUFF/n64dev/lib\libdragon.a(display.o)
__safe_buffer       0xc               C:/Users/spenc/Dropbox/N64_DEV_STUFF/n64dev/lib\libdragon.a(display.o)

Discarded input sections

 .reginfo       0x0000000000000000        0x0 main.o
 .reginfo       0x0000000000000000        0x0 C:/Users/spenc/Dropbox/N64_DEV_STUFF/n64dev/lib\libdragon.a(interrupt.o)
 .reginfo       0x0000000000000000        0x0 C:/Users/spenc/Dropbox/N64_DEV_STUFF/n64dev/lib\libdragon.a(entrypoint.o)
 .reginfo       0x0000000000000000        0x0 C:/Users/spenc/Dropbox/N64_DEV_STUFF/n64dev/lib\libdragon.a(dragonfs.o)
 .reginfo       0x0000000000000000        0x0 C:/Users/spenc/Dropbox/N64_DEV_STUFF/n64dev/lib\libdragon.a(display.o)
 .reginfo       0x0000000000000000        0x0 C:/Users/spenc/Dropbox/N64_DEV_STUFF/n64dev/lib\libdragon.a(controller.o)
 .reginfo       0x0000000000000000        0x0 C:/Users/spenc/Dropbox/N64_DEV_STUFF/n64dev/lib\libdragon.a(graphics.o)
 .reginfo       0x0000000000000000        0x0 C:/Users/spenc/Dropbox/N64_DEV_STUFF/n64dev/lib\libdragon.a(dma.o)
 .reginfo       0x0000000000000000        0x0 C:/Users/spenc/Dropbox/N64_DEV_STUFF/n64dev/lib\libdragon.a(n64sys.o)
 .reginfo       0x0000000000000000        0x0 C:/Users/spenc/Dropbox/N64_DEV_STUFF/n64dev/lib\libdragon.a(inthandler.o)
 .reginfo       0x0000000000000000        0x0 C:/Users/spenc/Dropbox/N64_DEV_STUFF/n64dev/lib\libdragon.a(exception.o)
 .reginfo       0x0000000000000000        0x0 C:/Users/spenc/Dropbox/N64_DEV_STUFF/n64dev/mips64-elf/lib\libc.a(lib_a-malloc.o)
 .reginfo       0x0000000000000000        0x0 C:/Users/spenc/Dropbox/N64_DEV_STUFF/n64dev/mips64-elf/lib\libc.a(lib_a-mallocr.o)
 .reginfo       0x0000000000000000        0x0 C:/Users/spenc/Dropbox/N64_DEV_STUFF/n64dev/mips64-elf/lib\libc.a(lib_a-memcpy.o)
 .reginfo       0x0000000000000000        0x0 C:/Users/spenc/Dropbox/N64_DEV_STUFF/n64dev/mips64-elf/lib\libc.a(lib_a-memset.o)
 .reginfo       0x0000000000000000        0x0 C:/Users/spenc/Dropbox/N64_DEV_STUFF/n64dev/mips64-elf/lib\libc.a(lib_a-mlock.o)
 .reginfo       0x0000000000000000        0x0 C:/Users/spenc/Dropbox/N64_DEV_STUFF/n64dev/mips64-elf/lib\libc.a(lib_a-sbrkr.o)
 .reginfo       0x0000000000000000        0x0 C:/Users/spenc/Dropbox/N64_DEV_STUFF/n64dev/mips64-elf/lib\libc.a(lib_a-strcmp.o)
 .reginfo       0x0000000000000000        0x0 C:/Users/spenc/Dropbox/N64_DEV_STUFF/n64dev/mips64-elf/lib\libc.a(lib_a-strcpy.o)
 .reginfo       0x0000000000000000        0x0 C:/Users/spenc/Dropbox/N64_DEV_STUFF/n64dev/mips64-elf/lib\libc.a(lib_a-freer.o)
 .reginfo       0x0000000000000000        0x0 C:/Users/spenc/Dropbox/N64_DEV_STUFF/n64dev/mips64-elf/lib\libc.a(lib_a-impure.o)
 .reginfo       0x0000000000000000        0x0 C:/Users/spenc/Dropbox/N64_DEV_STUFF/n64dev/mips64-elf/lib\libc.a(lib_a-reent.o)
 .reginfo       0x0000000000000000        0x0 C:/Users/spenc/Dropbox/N64_DEV_STUFF/n64dev/lib\libdragonsys.a(system.o)

Memory Configuration

Name             Origin             Length             Attributes
ram              0x0000000080000400 0x00000000003ffc00 xw
*default*        0x0000000000000000 0xffffffffffffffff

Linker script and memory map

LOAD LibN64.o
LOAD main.o
                0x0000000000000000                __DYNAMIC = 0x0
                0x0000000080400000                PROVIDE (__stack, 0x80400000)

.text           0x0000000080000400     0x6b58 load address 0x0000000000000000
 *(.boot)
 .boot          0x0000000080000400      0x160 C:/Users/spenc/Dropbox/N64_DEV_STUFF/n64dev/lib\libdragon.a(entrypoint.o)
                0x0000000080000400                _start
                0x0000000080000560                . = ALIGN (0x10)
                0x0000000080000560                __text_start = .
 *(.text)
 .text          0x0000000080000560      0x190 LibN64.o
                0x0000000080000598                LibN64::GLoop()
                0x0000000080000650                LibN64::LibN64(resolution_t, bitdepth_t)
                0x00000000800005b0                LibN64::LibN64(resolution_t, bitdepth_t)
                0x0000000080000560                LibN64::Begin()
 .text          0x00000000800006f0       0x48 main.o
                0x00000000800006f0                main
 .text          0x0000000080000738      0x614 C:/Users/spenc/Dropbox/N64_DEV_STUFF/n64dev/lib\libdragon.a(interrupt.o)
                0x0000000080000b48                unregister_SP_handler
                0x0000000080000a04                register_PI_handler
                0x0000000080000974                register_AI_handler
                0x0000000080000a4c                register_DP_handler
                0x0000000080000b98                set_VI_interrupt
                0x0000000080000a70                unregister_DP_handler
                0x0000000080000998                unregister_AI_handler
                0x0000000080000bcc                set_PI_interrupt
                0x0000000080000a28                unregister_PI_handler
                0x00000000800009bc                register_VI_handler
                0x0000000080000bf8                set_DP_interrupt
                0x0000000080000d28                get_interrupts_state
                0x0000000080000b6c                set_AI_interrupt
                0x0000000080000c7c                init_interrupts
                0x0000000080000a94                register_TI_handler
                0x0000000080000c24                set_SI_interrupt
                0x0000000080000ab8                unregister_TI_handler
                0x0000000080000cb4                disable_interrupts
                0x0000000080000adc                register_SI_handler
                0x0000000080000b24                register_SP_handler
                0x0000000080000b00                unregister_SI_handler
                0x0000000080000c50                set_SP_interrupt
                0x0000000080000954                __TI_handler
                0x00000000800009e0                unregister_VI_handler
                0x0000000080000858                __MI_handler
                0x0000000080000cf4                enable_interrupts
 .text          0x0000000080000d4c        0x0 C:/Users/spenc/Dropbox/N64_DEV_STUFF/n64dev/lib\libdragon.a(entrypoint.o)
 .text          0x0000000080000d4c      0xef4 C:/Users/spenc/Dropbox/N64_DEV_STUFF/n64dev/lib\libdragon.a(dragonfs.o)
                0x0000000080001ac4                dfs_size
                0x0000000080001b84                dfs_init
                0x00000000800017b0                dfs_seek
                0x00000000800015cc                dfs_open
                0x00000000800014b8                dfs_dir_findnext
                0x0000000080001758                dfs_close
                0x000000008000137c                dfs_dir_findfirst
                0x0000000080001340                dfs_chdir
                0x0000000080001b50                dfs_eof
                0x00000000800018bc                dfs_read
                0x0000000080001868                dfs_tell
 .text          0x0000000080001c40      0x9b4 C:/Users/spenc/Dropbox/N64_DEV_STUFF/n64dev/lib\libdragon.a(display.o)
                0x00000000800025a0                display_show
                0x0000000080001d2c                display_init_ex
                0x0000000080002424                display_close
                0x00000000800023e0                display_init
                0x0000000080002510                display_lock
 .text          0x00000000800025f4      0xe68 C:/Users/spenc/Dropbox/N64_DEV_STUFF/n64dev/lib\libdragon.a(controller.o)
                0x0000000080002af0                get_keys_up
                0x0000000080002efc                get_accessories_present
                0x0000000080002c24                get_keys_pressed
                0x00000000800028d0                eeprom_present
                0x0000000080002894                controller_init
                0x00000000800030f0                write_mempak_address
                0x0000000080002fb0                read_mempak_address
                0x0000000080002b8c                get_keys_held
                0x0000000080002968                eeprom_write
                0x00000000800029b4                controller_read
                0x0000000080002e94                get_controllers_present
                0x000000008000334c                identify_controller
                0x0000000080002c78                get_dpad_direction
                0x0000000080003400                rumble_stop
                0x0000000080002a54                get_keys_down
                0x0000000080002910                eeprom_read
                0x0000000080002da8                execute_raw_command
                0x00000000800029d8                controller_scan
                0x000000008000338c                rumble_start
                0x0000000080003234                identify_accessory
 .text          0x000000008000345c     0x1220 C:/Users/spenc/Dropbox/N64_DEV_STUFF/n64dev/lib\libdragon.a(graphics.o)
                0x000000008000350c                graphics_set_color
                0x0000000080003854                graphics_draw_line_trans
                0x00000000800036e8                graphics_draw_line
                0x0000000080003d84                graphics_draw_character
                0x0000000080003c84                graphics_fill_screen
                0x00000000800035ac                graphics_draw_pixel_trans
                0x0000000080004080                graphics_draw_sprite_stride
                0x00000000800042d8                graphics_draw_sprite
                0x0000000080003acc                graphics_draw_box_trans
                0x0000000080003f8c                graphics_draw_text
                0x0000000080003520                graphics_draw_pixel
                0x000000008000345c                graphics_convert_color
                0x00000000800034e0                graphics_make_color
                0x00000000800042f8                graphics_draw_sprite_trans_stride
                0x00000000800039c0                graphics_draw_box
                0x000000008000465c                graphics_draw_sprite_trans
 .text          0x000000008000467c      0x1a8 C:/Users/spenc/Dropbox/N64_DEV_STUFF/n64dev/lib\libdragon.a(dma.o)
                0x000000008000470c                dma_write
                0x000000008000468c                dma_read
                0x00000000800047d4                io_write
                0x000000008000467c                dma_busy
                0x000000008000478c                io_read
 .text          0x0000000080004824      0x1b0 C:/Users/spenc/Dropbox/N64_DEV_STUFF/n64dev/lib\libdragon.a(n64sys.o)
                0x0000000080004920                data_cache_hit_writeback_invalidate
                0x0000000080004878                wait_ticks
                0x0000000080004968                inst_cache_hit_writeback
                0x00000000800049b0                inst_cache_index_invalidate
                0x0000000080004944                data_cache_index_writeback_invalidate
                0x00000000800048fc                data_cache_hit_invalidate
                0x0000000080004830                sys_set_boot_cic
                0x00000000800048a0                wait_ms
                0x000000008000484c                get_ticks
                0x0000000080004824                sys_get_boot_cic
                0x0000000080004858                get_ticks_ms
                0x000000008000498c                inst_cache_hit_invalidate
                0x00000000800048d8                data_cache_hit_writeback
 .text          0x00000000800049d4      0x2f4 C:/Users/spenc/Dropbox/N64_DEV_STUFF/n64dev/lib\libdragon.a(inthandler.o)
                0x00000000800049d4                inthandler
 .text          0x0000000080004cc8       0xac C:/Users/spenc/Dropbox/N64_DEV_STUFF/n64dev/lib\libdragon.a(exception.o)
                0x0000000080004d24                __onResetException
                0x0000000080004cd4                __onCriticalException
                0x0000000080004cc8                register_exception_handler
 *fill*         0x0000000080004d74        0x4 00
 .text          0x0000000080004d78       0x20 C:/Users/spenc/Dropbox/N64_DEV_STUFF/n64dev/mips64-elf/lib\libc.a(lib_a-malloc.o)
                0x0000000080004d88                malloc
                0x0000000080004d78                free
 .text          0x0000000080004d98      0x890 C:/Users/spenc/Dropbox/N64_DEV_STUFF/n64dev/mips64-elf/lib\libc.a(lib_a-mallocr.o)
                0x0000000080004d98                _malloc_r
 .text          0x0000000080005628      0x160 C:/Users/spenc/Dropbox/N64_DEV_STUFF/n64dev/mips64-elf/lib\libc.a(lib_a-memcpy.o)
                0x0000000080005628                memcpy
 .text          0x0000000080005788       0xf0 C:/Users/spenc/Dropbox/N64_DEV_STUFF/n64dev/mips64-elf/lib\libc.a(lib_a-memset.o)
                0x0000000080005788                memset
 .text          0x0000000080005878       0x10 C:/Users/spenc/Dropbox/N64_DEV_STUFF/n64dev/mips64-elf/lib\libc.a(lib_a-mlock.o)
                0x0000000080005880                __malloc_unlock
                0x0000000080005878                __malloc_lock
 .text          0x0000000080005888       0x68 C:/Users/spenc/Dropbox/N64_DEV_STUFF/n64dev/mips64-elf/lib\libc.a(lib_a-sbrkr.o)
                0x0000000080005888                _sbrk_r
 .text          0x00000000800058f0       0x78 C:/Users/spenc/Dropbox/N64_DEV_STUFF/n64dev/mips64-elf/lib\libc.a(lib_a-strcmp.o)
                0x00000000800058f0                strcmp
 .text          0x0000000080005968       0xb8 C:/Users/spenc/Dropbox/N64_DEV_STUFF/n64dev/mips64-elf/lib\libc.a(lib_a-strcpy.o)
                0x0000000080005968                strcpy
 .text          0x0000000080005a20      0x420 C:/Users/spenc/Dropbox/N64_DEV_STUFF/n64dev/mips64-elf/lib\libc.a(lib_a-freer.o)
                0x0000000080005b58                _free_r
                0x0000000080005a20                _malloc_trim_r
 .text          0x0000000080005e40        0x0 C:/Users/spenc/Dropbox/N64_DEV_STUFF/n64dev/mips64-elf/lib\libc.a(lib_a-impure.o)
 .text          0x0000000080005e40      0x230 C:/Users/spenc/Dropbox/N64_DEV_STUFF/n64dev/mips64-elf/lib\libc.a(lib_a-reent.o)
                0x0000000080005ef8                cleanup_glue
                0x0000000080005f40                _reclaim_reent
                0x0000000080005e40                _wrapup_reent
 .text          0x0000000080006070      0xeb0 C:/Users/spenc/Dropbox/N64_DEV_STUFF/n64dev/lib\libdragonsys.a(system.o)
                0x0000000080006bec                times
                0x0000000080006558                detach_filesystem
                0x0000000080006658                execve
                0x0000000080006724                getpid
                0x0000000080006a8c                readlink
                0x000000008000674c                isatty
                0x0000000080006798                lseek
                0x00000000800064cc                chown
                0x0000000080006ca8                write
                0x0000000080006688                fstat
                0x0000000080006770                kill
                0x0000000080006c94                wait
                0x000000008000699c                read
                0x0000000080006c00                unlink
                0x0000000080006310                attach_filesystem
                0x0000000080006674                fork
                0x0000000080006aa0                sbrk
                0x0000000080006bd8                symlink
                0x0000000080006738                gettimeofday
                0x0000000080006dd0                dir_findfirst
                0x0000000080006b6c                stat
                0x0000000080006f04                unhook_stdio_calls
                0x0000000080006ecc                hook_stdio_calls
                0x0000000080006784                link
                0x000000008000666c                exit
                0x0000000080006e6c                dir_findnext
                0x000000008000682c                open
                0x00000000800064e0                close
 *(.text.*)
 *(.gnu.linkonce.t.*)
 .gnu.linkonce.t._ZN8Instance11FrameUpdateEv
                0x0000000080006f20       0x18 main.o
                0x0000000080006f20                Instance::FrameUpdate()
                0x0000000080006f40                . = ALIGN (0x10)
 *fill*         0x0000000080006f38        0x8 00
                0x0000000080006f40                __INIT_SECTION__ = .
 *(.init)
                0x0000000080006f40        0x4 LONG 0x3e00008
                0x0000000080006f44        0x4 LONG 0x0
                0x0000000080006f50                . = ALIGN (0x10)
 *fill*         0x0000000080006f48        0x8 00
                0x0000000080006f50                __FINI_SECTION__ = .
 *(.fini)
                0x0000000080006f50        0x4 LONG 0x3e00008
                0x0000000080006f54        0x4 LONG 0x0

.eh_frame_hdr
 *(.eh_frame_hdr)

.eh_frame       0x0000000080006f58      0x194 load address 0x0000000000006b58
 *(.eh_frame)
 .eh_frame      0x0000000080006f58       0x3c C:/Users/spenc/Dropbox/N64_DEV_STUFF/n64dev/mips64-elf/lib\libc.a(lib_a-malloc.o)
 .eh_frame      0x0000000080006f94       0x2c C:/Users/spenc/Dropbox/N64_DEV_STUFF/n64dev/mips64-elf/lib\libc.a(lib_a-mallocr.o)
                                         0x40 (size before relaxing)
 .eh_frame      0x0000000080006fc0       0x14 C:/Users/spenc/Dropbox/N64_DEV_STUFF/n64dev/mips64-elf/lib\libc.a(lib_a-memcpy.o)
                                         0x28 (size before relaxing)
 .eh_frame      0x0000000080006fd4       0x14 C:/Users/spenc/Dropbox/N64_DEV_STUFF/n64dev/mips64-elf/lib\libc.a(lib_a-memset.o)
                                         0x28 (size before relaxing)
 .eh_frame      0x0000000080006fe8       0x28 C:/Users/spenc/Dropbox/N64_DEV_STUFF/n64dev/mips64-elf/lib\libc.a(lib_a-mlock.o)
                                         0x3c (size before relaxing)
 .eh_frame      0x0000000080007010       0x1c C:/Users/spenc/Dropbox/N64_DEV_STUFF/n64dev/mips64-elf/lib\libc.a(lib_a-sbrkr.o)
                                         0x30 (size before relaxing)
 .eh_frame      0x000000008000702c       0x14 C:/Users/spenc/Dropbox/N64_DEV_STUFF/n64dev/mips64-elf/lib\libc.a(lib_a-strcmp.o)
                                         0x28 (size before relaxing)
 .eh_frame      0x0000000080007040       0x14 C:/Users/spenc/Dropbox/N64_DEV_STUFF/n64dev/mips64-elf/lib\libc.a(lib_a-strcpy.o)
                                         0x28 (size before relaxing)
 .eh_frame      0x0000000080007054       0x3c C:/Users/spenc/Dropbox/N64_DEV_STUFF/n64dev/mips64-elf/lib\libc.a(lib_a-freer.o)
                                         0x50 (size before relaxing)
 .eh_frame      0x0000000080007090       0x5c C:/Users/spenc/Dropbox/N64_DEV_STUFF/n64dev/mips64-elf/lib\libc.a(lib_a-reent.o)
                                         0x70 (size before relaxing)

.gcc_except_table
 *(.gcc_except_table)

.jcr
 *(.jcr)

.ctors          0x00000000800070ec        0xc load address 0x0000000000006cec
                0x00000000800070f0                . = ALIGN (0x10)
 *fill*         0x00000000800070ec        0x4 00
                0x00000000800070f0                __CTOR_LIST__ = .
                0x00000000800070f0                ___CTOR_LIST__ = .
                0x00000000800070f0        0x4 LONG 0x0 (((__CTOR_END__ - __CTOR_LIST__) / 0x4) - 0x2)
 *(SORT(.ctors.*))
 *(.ctors)
                0x00000000800070f4        0x4 LONG 0x0
                0x00000000800070f8                __CTOR_END__ = .

.dtors          0x00000000800070f8       0x10 load address 0x0000000000006cf8
                0x0000000080007100                . = ALIGN (0x10)
 *fill*         0x00000000800070f8        0x8 00
                0x0000000080007100                __DTOR_LIST__ = .
                0x0000000080007100                ___DTOR_LIST__ = .
                0x0000000080007100        0x4 LONG 0x0 (((__DTOR_END__ - __DTOR_LIST__) / 0x4) - 0x2)
 *(SORT(.dtors.*))
 *(.dtors)
                0x0000000080007104        0x4 LONG 0x0
                0x0000000080007108                __DTOR_END__ = .
                0x0000000080007108                . = .

.rodata         0x0000000080007108      0x898 load address 0x0000000000006d08
 *(.rdata)
 *(.rodata)
 .rodata        0x0000000080007108       0x20 C:/Users/spenc/Dropbox/N64_DEV_STUFF/n64dev/lib\libdragon.a(controller.o)
 .rodata        0x0000000080007128      0x800 C:/Users/spenc/Dropbox/N64_DEV_STUFF/n64dev/lib\libdragon.a(graphics.o)
 *(.rodata.*)
 .rodata.str1.8
                0x0000000080007928        0x5 LibN64.o
                                          0x8 (size before relaxing)
 .rodata.str1.8
                0x0000000000000000        0x8 main.o
 *fill*         0x000000008000792d        0x3 00
 .rodata.str1.8
                0x0000000080007930       0x1e C:/Users/spenc/Dropbox/N64_DEV_STUFF/n64dev/lib\libdragon.a(dragonfs.o)
                                         0x20 (size before relaxing)
 *fill*         0x000000008000794e        0x2 00
 .rodata.str1.8
                0x0000000080007950       0x22 C:/Users/spenc/Dropbox/N64_DEV_STUFF/n64dev/lib\libdragon.a(exception.o)
                                         0x28 (size before relaxing)
 *fill*         0x0000000080007972        0x6 00
 .rodata.str1.8
                0x0000000080007978        0x8 C:/Users/spenc/Dropbox/N64_DEV_STUFF/n64dev/mips64-elf/lib\libc.a(lib_a-impure.o)
 *(.gnu.linkonce.r.*)
 .gnu.linkonce.r._ZTV6LibN64
                0x0000000080007980       0x10 LibN64.o
                0x0000000080007980                vtable for LibN64
 .gnu.linkonce.r._ZTV8Instance
                0x0000000080007990       0x10 main.o
                0x0000000080007990                vtable for Instance

.rel.dyn        0x0000000080007108        0x0
 .rel.dyn       0x0000000000000000        0x0 C:/Users/spenc/Dropbox/N64_DEV_STUFF/n64dev/lib\libdragon.a(inthandler.o)
                0x0000000080007110                . = ALIGN (0x10)
                0x0000000080007110                __text_end = .

.data           0x00000000800079a0      0xa10 load address 0x00000000000075a0
                0x00000000800079a0                __data_start = .
 *(.data)
 .data          0x00000000800079a0        0x0 LibN64.o
 .data          0x00000000800079a0        0x0 main.o
 .data          0x00000000800079a0        0x4 C:/Users/spenc/Dropbox/N64_DEV_STUFF/n64dev/lib\libdragon.a(interrupt.o)
 .data          0x00000000800079a4        0x0 C:/Users/spenc/Dropbox/N64_DEV_STUFF/n64dev/lib\libdragon.a(entrypoint.o)
 *fill*         0x00000000800079a4        0x4 00
 .data          0x00000000800079a8       0x30 C:/Users/spenc/Dropbox/N64_DEV_STUFF/n64dev/lib\libdragon.a(dragonfs.o)
 .data          0x00000000800079d8       0x10 C:/Users/spenc/Dropbox/N64_DEV_STUFF/n64dev/lib\libdragon.a(display.o)
                0x00000000800079e4                __buffers
 .data          0x00000000800079e8      0x180 C:/Users/spenc/Dropbox/N64_DEV_STUFF/n64dev/lib\libdragon.a(controller.o)
 .data          0x0000000080007b68        0x4 C:/Users/spenc/Dropbox/N64_DEV_STUFF/n64dev/lib\libdragon.a(graphics.o)
 .data          0x0000000080007b6c        0x0 C:/Users/spenc/Dropbox/N64_DEV_STUFF/n64dev/lib\libdragon.a(dma.o)
 .data          0x0000000080007b6c        0x4 C:/Users/spenc/Dropbox/N64_DEV_STUFF/n64dev/lib\libdragon.a(n64sys.o)
                0x0000000080007b6c                __bootcic
 .data          0x0000000080007b70        0x0 C:/Users/spenc/Dropbox/N64_DEV_STUFF/n64dev/lib\libdragon.a(inthandler.o)
 .data          0x0000000080007b70        0x0 C:/Users/spenc/Dropbox/N64_DEV_STUFF/n64dev/lib\libdragon.a(exception.o)
 .data          0x0000000080007b70        0x0 C:/Users/spenc/Dropbox/N64_DEV_STUFF/n64dev/mips64-elf/lib\libc.a(lib_a-malloc.o)
 .data          0x0000000080007b70      0x410 C:/Users/spenc/Dropbox/N64_DEV_STUFF/n64dev/mips64-elf/lib\libc.a(lib_a-mallocr.o)
                0x0000000080007f7c                __malloc_sbrk_base
                0x0000000080007b70                __malloc_av_
                0x0000000080007f78                __malloc_trim_threshold
 .data          0x0000000080007f80        0x0 C:/Users/spenc/Dropbox/N64_DEV_STUFF/n64dev/mips64-elf/lib\libc.a(lib_a-memcpy.o)
 .data          0x0000000080007f80        0x0 C:/Users/spenc/Dropbox/N64_DEV_STUFF/n64dev/mips64-elf/lib\libc.a(lib_a-memset.o)
 .data          0x0000000080007f80        0x0 C:/Users/spenc/Dropbox/N64_DEV_STUFF/n64dev/mips64-elf/lib\libc.a(lib_a-mlock.o)
 .data          0x0000000080007f80        0x0 C:/Users/spenc/Dropbox/N64_DEV_STUFF/n64dev/mips64-elf/lib\libc.a(lib_a-sbrkr.o)
 .data          0x0000000080007f80        0x0 C:/Users/spenc/Dropbox/N64_DEV_STUFF/n64dev/mips64-elf/lib\libc.a(lib_a-strcmp.o)
 .data          0x0000000080007f80        0x0 C:/Users/spenc/Dropbox/N64_DEV_STUFF/n64dev/mips64-elf/lib\libc.a(lib_a-strcpy.o)
 .data          0x0000000080007f80        0x0 C:/Users/spenc/Dropbox/N64_DEV_STUFF/n64dev/mips64-elf/lib\libc.a(lib_a-freer.o)
 .data          0x0000000080007f80      0x428 C:/Users/spenc/Dropbox/N64_DEV_STUFF/n64dev/mips64-elf/lib\libc.a(lib_a-impure.o)
 .data          0x00000000800083a8        0x0 C:/Users/spenc/Dropbox/N64_DEV_STUFF/n64dev/mips64-elf/lib\libc.a(lib_a-reent.o)
 .data          0x00000000800083a8        0x8 C:/Users/spenc/Dropbox/N64_DEV_STUFF/n64dev/lib\libdragonsys.a(system.o)
                0x00000000800083ac                environ
 *(.data.*)
 *(.gnu.linkonce.d.*)
                0x00000000800083b0                . = ALIGN (0x8)
                0x00000000800103b0                _gp = (. + 0x8000)
                0x00000000800103b0                __global = _gp

.lit8
 *(.lit8)

.lit4
 *(.lit4)

.sdata          0x00000000800083b0        0x8 load address 0x0000000000007fb0
 *(.sdata)
 .sdata         0x00000000800083b0        0x8 C:/Users/spenc/Dropbox/N64_DEV_STUFF/n64dev/mips64-elf/lib\libc.a(lib_a-impure.o)
                0x00000000800083b4                _global_impure_ptr
                0x00000000800083b0                _impure_ptr
 *(.sdata.*)
 *(.gnu.linkonce.s.*)
                0x00000000800083b8                . = ALIGN (0x8)
                0x00000000800083b8                __data_end = .

.sbss           0x00000000800083b8      0x228 load address 0x0000000000007fb8
                0x00000000800083b8                __bss_start = .
 *(.sbss)
 .sbss          0x00000000800083b8      0x218 C:/Users/spenc/Dropbox/N64_DEV_STUFF/n64dev/lib\libdragon.a(inthandler.o)
 *(.sbss.*)
 *(.gnu.linkonce.sb.*)
 *(.scommon)
 .scommon       0x00000000800085d0        0xc C:/Users/spenc/Dropbox/N64_DEV_STUFF/n64dev/lib\libdragon.a(display.o)
                0x00000000800085d0                __width
                0x00000000800085d4                __bitdepth
                0x00000000800085d8                __height
 .scommon       0x00000000800085dc        0x4 C:/Users/spenc/Dropbox/N64_DEV_STUFF/n64dev/mips64-elf/lib\libc.a(lib_a-reent.o)
                0x00000000800085dc                errno
 .scommon       0x00000000800085e0        0x0 C:/Users/spenc/Dropbox/N64_DEV_STUFF/n64dev/lib\libdragonsys.a(system.o)

.bss            0x0000000080008600    0x116dc load address 0x0000000000008200
 *(.bss)
 .bss           0x0000000080008600        0x0 LibN64.o
 .bss           0x0000000080008600        0x0 main.o
 .bss           0x0000000080008600       0x1c C:/Users/spenc/Dropbox/N64_DEV_STUFF/n64dev/lib\libdragon.a(interrupt.o)
                0x0000000080008610                PI_callback
                0x0000000080008608                TI_callback
                0x0000000080008614                VI_callback
                0x0000000080008600                SP_callback
                0x0000000080008618                AI_callback
                0x0000000080008604                SI_callback
                0x000000008000860c                DP_callback
 .bss           0x000000008000861c        0x0 C:/Users/spenc/Dropbox/N64_DEV_STUFF/n64dev/lib\libdragon.a(entrypoint.o)
 *fill*         0x000000008000861c        0x4 00
 .bss           0x0000000080008620      0x9a0 C:/Users/spenc/Dropbox/N64_DEV_STUFF/n64dev/lib\libdragon.a(dragonfs.o)
 .bss           0x0000000080008fc0       0x10 C:/Users/spenc/Dropbox/N64_DEV_STUFF/n64dev/lib\libdragon.a(display.o)
 .bss           0x0000000080008fd0      0x200 C:/Users/spenc/Dropbox/N64_DEV_STUFF/n64dev/lib\libdragon.a(controller.o)
 .bss           0x00000000800091d0        0x4 C:/Users/spenc/Dropbox/N64_DEV_STUFF/n64dev/lib\libdragon.a(graphics.o)
 .bss           0x00000000800091d4        0x0 C:/Users/spenc/Dropbox/N64_DEV_STUFF/n64dev/lib\libdragon.a(dma.o)
 .bss           0x00000000800091d4        0x0 C:/Users/spenc/Dropbox/N64_DEV_STUFF/n64dev/lib\libdragon.a(n64sys.o)
 *fill*         0x00000000800091d4       0x2c 00
 .bss           0x0000000080009200    0x10500 C:/Users/spenc/Dropbox/N64_DEV_STUFF/n64dev/lib\libdragon.a(inthandler.o)
                0x0000000080009300                __baseRegAddr
 .bss           0x0000000080019700        0x4 C:/Users/spenc/Dropbox/N64_DEV_STUFF/n64dev/lib\libdragon.a(exception.o)
 .bss           0x0000000080019704        0x0 C:/Users/spenc/Dropbox/N64_DEV_STUFF/n64dev/mips64-elf/lib\libc.a(lib_a-malloc.o)
 *fill*         0x0000000080019704        0x4 00
 .bss           0x0000000080019708       0x38 C:/Users/spenc/Dropbox/N64_DEV_STUFF/n64dev/mips64-elf/lib\libc.a(lib_a-mallocr.o)
                0x0000000080019708                __malloc_top_pad
                0x000000008001970c                __malloc_max_sbrked_mem
                0x0000000080019718                __malloc_current_mallinfo
                0x0000000080019710                __malloc_max_total_mem
 .bss           0x0000000080019740        0x0 C:/Users/spenc/Dropbox/N64_DEV_STUFF/n64dev/mips64-elf/lib\libc.a(lib_a-memcpy.o)
 .bss           0x0000000080019740        0x0 C:/Users/spenc/Dropbox/N64_DEV_STUFF/n64dev/mips64-elf/lib\libc.a(lib_a-memset.o)
 .bss           0x0000000080019740        0x0 C:/Users/spenc/Dropbox/N64_DEV_STUFF/n64dev/mips64-elf/lib\libc.a(lib_a-mlock.o)
 .bss           0x0000000080019740        0x0 C:/Users/spenc/Dropbox/N64_DEV_STUFF/n64dev/mips64-elf/lib\libc.a(lib_a-sbrkr.o)
 .bss           0x0000000080019740        0x0 C:/Users/spenc/Dropbox/N64_DEV_STUFF/n64dev/mips64-elf/lib\libc.a(lib_a-strcmp.o)
 .bss           0x0000000080019740        0x0 C:/Users/spenc/Dropbox/N64_DEV_STUFF/n64dev/mips64-elf/lib\libc.a(lib_a-strcpy.o)
 .bss           0x0000000080019740        0x0 C:/Users/spenc/Dropbox/N64_DEV_STUFF/n64dev/mips64-elf/lib\libc.a(lib_a-freer.o)
 .bss           0x0000000080019740        0x0 C:/Users/spenc/Dropbox/N64_DEV_STUFF/n64dev/mips64-elf/lib\libc.a(lib_a-impure.o)
 .bss           0x0000000080019740        0x0 C:/Users/spenc/Dropbox/N64_DEV_STUFF/n64dev/mips64-elf/lib\libc.a(lib_a-reent.o)
 .bss           0x0000000080019740      0x520 C:/Users/spenc/Dropbox/N64_DEV_STUFF/n64dev/lib\libdragonsys.a(system.o)
                0x0000000080019740                __env
 *(.bss.*)
 *(.gnu.linkonce.b.*)
 *(COMMON)
 COMMON         0x0000000080019c60       0x7c C:/Users/spenc/Dropbox/N64_DEV_STUFF/n64dev/lib\libdragon.a(display.o)
                0x0000000080019c60                __registers
                0x0000000080019cd0                __safe_buffer
                0x0000000080019cdc                end = .
                0x0000000080019ce0                _end = ALIGN (0x10)
                0x0000000080019ce0                __end = _end
                0x0000000080019cdc                __bss_end = .
LOAD C:/Users/spenc/Dropbox/N64_DEV_STUFF/n64dev/lib\libdragon.a
LOAD C:/Users/spenc/Dropbox/N64_DEV_STUFF/n64dev/mips64-elf/lib\libm.a
LOAD C:/Users/spenc/Dropbox/N64_DEV_STUFF/n64dev/mips64-elf/lib\libstdc++.a
LOAD C:/Users/spenc/Dropbox/N64_DEV_STUFF/n64dev/mips64-elf/lib\libc.a
LOAD C:/Users/spenc/Dropbox/N64_DEV_STUFF/n64dev/lib/gcc/mips64-elf/4.4.0\libgcc.a
LOAD C:/Users/spenc/Dropbox/N64_DEV_STUFF/n64dev/lib\libdragonsys.a
OUTPUT(CPPLibDragonN64.elf elf32-bigmips)

.reginfo        0x0000000000000000       0x18
 .reginfo       0x0000000000000000       0x18 LibN64.o

.pdr            0x0000000000000000     0x15e0
 .pdr           0x0000000000000000       0x80 LibN64.o
 .pdr           0x0000000000000080       0x40 main.o
 .pdr           0x00000000000000c0      0x3a0 C:/Users/spenc/Dropbox/N64_DEV_STUFF/n64dev/lib\libdragon.a(interrupt.o)
 .pdr           0x0000000000000460        0x0 C:/Users/spenc/Dropbox/N64_DEV_STUFF/n64dev/lib\libdragon.a(entrypoint.o)
 .pdr           0x0000000000000460      0x2c0 C:/Users/spenc/Dropbox/N64_DEV_STUFF/n64dev/lib\libdragon.a(dragonfs.o)
 .pdr           0x0000000000000720       0xe0 C:/Users/spenc/Dropbox/N64_DEV_STUFF/n64dev/lib\libdragon.a(display.o)
 .pdr           0x0000000000000800      0x320 C:/Users/spenc/Dropbox/N64_DEV_STUFF/n64dev/lib\libdragon.a(controller.o)
 .pdr           0x0000000000000b20      0x200 C:/Users/spenc/Dropbox/N64_DEV_STUFF/n64dev/lib\libdragon.a(graphics.o)
 .pdr           0x0000000000000d20       0xa0 C:/Users/spenc/Dropbox/N64_DEV_STUFF/n64dev/lib\libdragon.a(dma.o)
 .pdr           0x0000000000000dc0      0x1a0 C:/Users/spenc/Dropbox/N64_DEV_STUFF/n64dev/lib\libdragon.a(n64sys.o)
 .pdr           0x0000000000000f60        0x0 C:/Users/spenc/Dropbox/N64_DEV_STUFF/n64dev/lib\libdragon.a(inthandler.o)
 .pdr           0x0000000000000f60       0x60 C:/Users/spenc/Dropbox/N64_DEV_STUFF/n64dev/lib\libdragon.a(exception.o)
 .pdr           0x0000000000000fc0       0x40 C:/Users/spenc/Dropbox/N64_DEV_STUFF/n64dev/mips64-elf/lib\libc.a(lib_a-malloc.o)
 .pdr           0x0000000000001000       0x20 C:/Users/spenc/Dropbox/N64_DEV_STUFF/n64dev/mips64-elf/lib\libc.a(lib_a-mallocr.o)
 .pdr           0x0000000000001020       0x20 C:/Users/spenc/Dropbox/N64_DEV_STUFF/n64dev/mips64-elf/lib\libc.a(lib_a-memcpy.o)
 .pdr           0x0000000000001040       0x20 C:/Users/spenc/Dropbox/N64_DEV_STUFF/n64dev/mips64-elf/lib\libc.a(lib_a-memset.o)
 .pdr           0x0000000000001060       0x40 C:/Users/spenc/Dropbox/N64_DEV_STUFF/n64dev/mips64-elf/lib\libc.a(lib_a-mlock.o)
 .pdr           0x00000000000010a0       0x20 C:/Users/spenc/Dropbox/N64_DEV_STUFF/n64dev/mips64-elf/lib\libc.a(lib_a-sbrkr.o)
 .pdr           0x00000000000010c0       0x20 C:/Users/spenc/Dropbox/N64_DEV_STUFF/n64dev/mips64-elf/lib\libc.a(lib_a-strcmp.o)
 .pdr           0x00000000000010e0       0x20 C:/Users/spenc/Dropbox/N64_DEV_STUFF/n64dev/mips64-elf/lib\libc.a(lib_a-strcpy.o)
 .pdr           0x0000000000001100       0x40 C:/Users/spenc/Dropbox/N64_DEV_STUFF/n64dev/mips64-elf/lib\libc.a(lib_a-freer.o)
 .pdr           0x0000000000001140        0x0 C:/Users/spenc/Dropbox/N64_DEV_STUFF/n64dev/mips64-elf/lib\libc.a(lib_a-impure.o)
 .pdr           0x0000000000001140       0x60 C:/Users/spenc/Dropbox/N64_DEV_STUFF/n64dev/mips64-elf/lib\libc.a(lib_a-reent.o)
 .pdr           0x00000000000011a0      0x440 C:/Users/spenc/Dropbox/N64_DEV_STUFF/n64dev/lib\libdragonsys.a(system.o)

.mdebug.abiO64  0x0000000000000000        0x0
 .mdebug.abiO64
                0x0000000000000000        0x0 LibN64.o
 .mdebug.abiO64
                0x0000000000000000        0x0 main.o
 .mdebug.abiO64
                0x0000000000000000        0x0 C:/Users/spenc/Dropbox/N64_DEV_STUFF/n64dev/lib\libdragon.a(interrupt.o)
 .mdebug.abiO64
                0x0000000000000000        0x0 C:/Users/spenc/Dropbox/N64_DEV_STUFF/n64dev/lib\libdragon.a(dragonfs.o)
 .mdebug.abiO64
                0x0000000000000000        0x0 C:/Users/spenc/Dropbox/N64_DEV_STUFF/n64dev/lib\libdragon.a(display.o)
 .mdebug.abiO64
                0x0000000000000000        0x0 C:/Users/spenc/Dropbox/N64_DEV_STUFF/n64dev/lib\libdragon.a(controller.o)
 .mdebug.abiO64
                0x0000000000000000        0x0 C:/Users/spenc/Dropbox/N64_DEV_STUFF/n64dev/lib\libdragon.a(graphics.o)
 .mdebug.abiO64
                0x0000000000000000        0x0 C:/Users/spenc/Dropbox/N64_DEV_STUFF/n64dev/lib\libdragon.a(dma.o)
 .mdebug.abiO64
                0x0000000000000000        0x0 C:/Users/spenc/Dropbox/N64_DEV_STUFF/n64dev/lib\libdragon.a(n64sys.o)
 .mdebug.abiO64
                0x0000000000000000        0x0 C:/Users/spenc/Dropbox/N64_DEV_STUFF/n64dev/lib\libdragon.a(exception.o)
 .mdebug.abiO64
                0x0000000000000000        0x0 C:/Users/spenc/Dropbox/N64_DEV_STUFF/n64dev/mips64-elf/lib\libc.a(lib_a-malloc.o)
 .mdebug.abiO64
                0x0000000000000000        0x0 C:/Users/spenc/Dropbox/N64_DEV_STUFF/n64dev/mips64-elf/lib\libc.a(lib_a-mallocr.o)
 .mdebug.abiO64
                0x0000000000000000        0x0 C:/Users/spenc/Dropbox/N64_DEV_STUFF/n64dev/mips64-elf/lib\libc.a(lib_a-memcpy.o)
 .mdebug.abiO64
                0x0000000000000000        0x0 C:/Users/spenc/Dropbox/N64_DEV_STUFF/n64dev/mips64-elf/lib\libc.a(lib_a-memset.o)
 .mdebug.abiO64
                0x0000000000000000        0x0 C:/Users/spenc/Dropbox/N64_DEV_STUFF/n64dev/mips64-elf/lib\libc.a(lib_a-mlock.o)
 .mdebug.abiO64
                0x0000000000000000        0x0 C:/Users/spenc/Dropbox/N64_DEV_STUFF/n64dev/mips64-elf/lib\libc.a(lib_a-sbrkr.o)
 .mdebug.abiO64
                0x0000000000000000        0x0 C:/Users/spenc/Dropbox/N64_DEV_STUFF/n64dev/mips64-elf/lib\libc.a(lib_a-strcmp.o)
 .mdebug.abiO64
                0x0000000000000000        0x0 C:/Users/spenc/Dropbox/N64_DEV_STUFF/n64dev/mips64-elf/lib\libc.a(lib_a-strcpy.o)
 .mdebug.abiO64
                0x0000000000000000        0x0 C:/Users/spenc/Dropbox/N64_DEV_STUFF/n64dev/mips64-elf/lib\libc.a(lib_a-freer.o)
 .mdebug.abiO64
                0x0000000000000000        0x0 C:/Users/spenc/Dropbox/N64_DEV_STUFF/n64dev/mips64-elf/lib\libc.a(lib_a-impure.o)
 .mdebug.abiO64
                0x0000000000000000        0x0 C:/Users/spenc/Dropbox/N64_DEV_STUFF/n64dev/mips64-elf/lib\libc.a(lib_a-reent.o)
 .mdebug.abiO64
                0x0000000000000000        0x0 C:/Users/spenc/Dropbox/N64_DEV_STUFF/n64dev/lib\libdragonsys.a(system.o)

.gcc_compiled_long32
                0x0000000000000000        0x0
 .gcc_compiled_long32
                0x0000000000000000        0x0 LibN64.o
 .gcc_compiled_long32
                0x0000000000000000        0x0 main.o
 .gcc_compiled_long32
                0x0000000000000000        0x0 C:/Users/spenc/Dropbox/N64_DEV_STUFF/n64dev/lib\libdragon.a(interrupt.o)
 .gcc_compiled_long32
                0x0000000000000000        0x0 C:/Users/spenc/Dropbox/N64_DEV_STUFF/n64dev/lib\libdragon.a(dragonfs.o)
 .gcc_compiled_long32
                0x0000000000000000        0x0 C:/Users/spenc/Dropbox/N64_DEV_STUFF/n64dev/lib\libdragon.a(display.o)
 .gcc_compiled_long32
                0x0000000000000000        0x0 C:/Users/spenc/Dropbox/N64_DEV_STUFF/n64dev/lib\libdragon.a(controller.o)
 .gcc_compiled_long32
                0x0000000000000000        0x0 C:/Users/spenc/Dropbox/N64_DEV_STUFF/n64dev/lib\libdragon.a(graphics.o)
 .gcc_compiled_long32
                0x0000000000000000        0x0 C:/Users/spenc/Dropbox/N64_DEV_STUFF/n64dev/lib\libdragon.a(dma.o)
 .gcc_compiled_long32
                0x0000000000000000        0x0 C:/Users/spenc/Dropbox/N64_DEV_STUFF/n64dev/lib\libdragon.a(n64sys.o)
 .gcc_compiled_long32
                0x0000000000000000        0x0 C:/Users/spenc/Dropbox/N64_DEV_STUFF/n64dev/lib\libdragon.a(exception.o)
 .gcc_compiled_long32
                0x0000000000000000        0x0 C:/Users/spenc/Dropbox/N64_DEV_STUFF/n64dev/mips64-elf/lib\libc.a(lib_a-malloc.o)
 .gcc_compiled_long32
                0x0000000000000000        0x0 C:/Users/spenc/Dropbox/N64_DEV_STUFF/n64dev/mips64-elf/lib\libc.a(lib_a-mallocr.o)
 .gcc_compiled_long32
                0x0000000000000000        0x0 C:/Users/spenc/Dropbox/N64_DEV_STUFF/n64dev/mips64-elf/lib\libc.a(lib_a-memcpy.o)
 .gcc_compiled_long32
                0x0000000000000000        0x0 C:/Users/spenc/Dropbox/N64_DEV_STUFF/n64dev/mips64-elf/lib\libc.a(lib_a-memset.o)
 .gcc_compiled_long32
                0x0000000000000000        0x0 C:/Users/spenc/Dropbox/N64_DEV_STUFF/n64dev/mips64-elf/lib\libc.a(lib_a-mlock.o)
 .gcc_compiled_long32
                0x0000000000000000        0x0 C:/Users/spenc/Dropbox/N64_DEV_STUFF/n64dev/mips64-elf/lib\libc.a(lib_a-sbrkr.o)
 .gcc_compiled_long32
                0x0000000000000000        0x0 C:/Users/spenc/Dropbox/N64_DEV_STUFF/n64dev/mips64-elf/lib\libc.a(lib_a-strcmp.o)
 .gcc_compiled_long32
                0x0000000000000000        0x0 C:/Users/spenc/Dropbox/N64_DEV_STUFF/n64dev/mips64-elf/lib\libc.a(lib_a-strcpy.o)
 .gcc_compiled_long32
                0x0000000000000000        0x0 C:/Users/spenc/Dropbox/N64_DEV_STUFF/n64dev/mips64-elf/lib\libc.a(lib_a-freer.o)
 .gcc_compiled_long32
                0x0000000000000000        0x0 C:/Users/spenc/Dropbox/N64_DEV_STUFF/n64dev/mips64-elf/lib\libc.a(lib_a-impure.o)
 .gcc_compiled_long32
                0x0000000000000000        0x0 C:/Users/spenc/Dropbox/N64_DEV_STUFF/n64dev/mips64-elf/lib\libc.a(lib_a-reent.o)
 .gcc_compiled_long32
                0x0000000000000000        0x0 C:/Users/spenc/Dropbox/N64_DEV_STUFF/n64dev/lib\libdragonsys.a(system.o)

.comment        0x0000000000000000       0xfb
 .comment       0x0000000000000000       0x12 LibN64.o
 .comment       0x0000000000000012       0x12 main.o
 .comment       0x0000000000000024       0x11 C:/Users/spenc/Dropbox/N64_DEV_STUFF/n64dev/lib\libdragon.a(interrupt.o)
                                         0x12 (size before relaxing)
 .comment       0x0000000000000000       0x12 C:/Users/spenc/Dropbox/N64_DEV_STUFF/n64dev/lib\libdragon.a(dragonfs.o)
 .comment       0x0000000000000000       0x12 C:/Users/spenc/Dropbox/N64_DEV_STUFF/n64dev/lib\libdragon.a(display.o)
 .comment       0x0000000000000000       0x12 C:/Users/spenc/Dropbox/N64_DEV_STUFF/n64dev/lib\libdragon.a(controller.o)
 .comment       0x0000000000000000       0x12 C:/Users/spenc/Dropbox/N64_DEV_STUFF/n64dev/lib\libdragon.a(graphics.o)
 .comment       0x0000000000000000       0x12 C:/Users/spenc/Dropbox/N64_DEV_STUFF/n64dev/lib\libdragon.a(dma.o)
 .comment       0x0000000000000000       0x12 C:/Users/spenc/Dropbox/N64_DEV_STUFF/n64dev/lib\libdragon.a(n64sys.o)
 .comment       0x0000000000000000       0x12 C:/Users/spenc/Dropbox/N64_DEV_STUFF/n64dev/lib\libdragon.a(exception.o)
 .comment       0x0000000000000035       0x12 C:/Users/spenc/Dropbox/N64_DEV_STUFF/n64dev/mips64-elf/lib\libc.a(lib_a-malloc.o)
 .comment       0x0000000000000047       0x12 C:/Users/spenc/Dropbox/N64_DEV_STUFF/n64dev/mips64-elf/lib\libc.a(lib_a-mallocr.o)
 .comment       0x0000000000000059       0x12 C:/Users/spenc/Dropbox/N64_DEV_STUFF/n64dev/mips64-elf/lib\libc.a(lib_a-memcpy.o)
 .comment       0x000000000000006b       0x12 C:/Users/spenc/Dropbox/N64_DEV_STUFF/n64dev/mips64-elf/lib\libc.a(lib_a-memset.o)
 .comment       0x000000000000007d       0x12 C:/Users/spenc/Dropbox/N64_DEV_STUFF/n64dev/mips64-elf/lib\libc.a(lib_a-mlock.o)
 .comment       0x000000000000008f       0x12 C:/Users/spenc/Dropbox/N64_DEV_STUFF/n64dev/mips64-elf/lib\libc.a(lib_a-sbrkr.o)
 .comment       0x00000000000000a1       0x12 C:/Users/spenc/Dropbox/N64_DEV_STUFF/n64dev/mips64-elf/lib\libc.a(lib_a-strcmp.o)
 .comment       0x00000000000000b3       0x12 C:/Users/spenc/Dropbox/N64_DEV_STUFF/n64dev/mips64-elf/lib\libc.a(lib_a-strcpy.o)
 .comment       0x00000000000000c5       0x12 C:/Users/spenc/Dropbox/N64_DEV_STUFF/n64dev/mips64-elf/lib\libc.a(lib_a-freer.o)
 .comment       0x00000000000000d7       0x12 C:/Users/spenc/Dropbox/N64_DEV_STUFF/n64dev/mips64-elf/lib\libc.a(lib_a-impure.o)
 .comment       0x00000000000000e9       0x12 C:/Users/spenc/Dropbox/N64_DEV_STUFF/n64dev/mips64-elf/lib\libc.a(lib_a-reent.o)
 .comment       0x0000000000000000       0x12 C:/Users/spenc/Dropbox/N64_DEV_STUFF/n64dev/lib\libdragonsys.a(system.o)

.gnu.attributes
                0x0000000000000000       0x10
 .gnu.attributes
                0x0000000000000000       0x10 LibN64.o
 .gnu.attributes
                0x0000000000000010       0x10 main.o
 .gnu.attributes
                0x0000000000000020       0x10 C:/Users/spenc/Dropbox/N64_DEV_STUFF/n64dev/lib\libdragon.a(interrupt.o)
 .gnu.attributes
                0x0000000000000030       0x10 C:/Users/spenc/Dropbox/N64_DEV_STUFF/n64dev/lib\libdragon.a(dragonfs.o)
 .gnu.attributes
                0x0000000000000040       0x10 C:/Users/spenc/Dropbox/N64_DEV_STUFF/n64dev/lib\libdragon.a(display.o)
 .gnu.attributes
                0x0000000000000050       0x10 C:/Users/spenc/Dropbox/N64_DEV_STUFF/n64dev/lib\libdragon.a(controller.o)
 .gnu.attributes
                0x0000000000000060       0x10 C:/Users/spenc/Dropbox/N64_DEV_STUFF/n64dev/lib\libdragon.a(graphics.o)
 .gnu.attributes
                0x0000000000000070       0x10 C:/Users/spenc/Dropbox/N64_DEV_STUFF/n64dev/lib\libdragon.a(dma.o)
 .gnu.attributes
                0x0000000000000080       0x10 C:/Users/spenc/Dropbox/N64_DEV_STUFF/n64dev/lib\libdragon.a(n64sys.o)
 .gnu.attributes
                0x0000000000000090       0x10 C:/Users/spenc/Dropbox/N64_DEV_STUFF/n64dev/lib\libdragon.a(exception.o)
 .gnu.attributes
                0x00000000000000a0       0x10 C:/Users/spenc/Dropbox/N64_DEV_STUFF/n64dev/mips64-elf/lib\libc.a(lib_a-malloc.o)
 .gnu.attributes
                0x00000000000000b0       0x10 C:/Users/spenc/Dropbox/N64_DEV_STUFF/n64dev/mips64-elf/lib\libc.a(lib_a-mallocr.o)
 .gnu.attributes
                0x00000000000000c0       0x10 C:/Users/spenc/Dropbox/N64_DEV_STUFF/n64dev/mips64-elf/lib\libc.a(lib_a-memcpy.o)
 .gnu.attributes
                0x00000000000000d0       0x10 C:/Users/spenc/Dropbox/N64_DEV_STUFF/n64dev/mips64-elf/lib\libc.a(lib_a-memset.o)
 .gnu.attributes
                0x00000000000000e0       0x10 C:/Users/spenc/Dropbox/N64_DEV_STUFF/n64dev/mips64-elf/lib\libc.a(lib_a-mlock.o)
 .gnu.attributes
                0x00000000000000f0       0x10 C:/Users/spenc/Dropbox/N64_DEV_STUFF/n64dev/mips64-elf/lib\libc.a(lib_a-sbrkr.o)
 .gnu.attributes
                0x0000000000000100       0x10 C:/Users/spenc/Dropbox/N64_DEV_STUFF/n64dev/mips64-elf/lib\libc.a(lib_a-strcmp.o)
 .gnu.attributes
                0x0000000000000110       0x10 C:/Users/spenc/Dropbox/N64_DEV_STUFF/n64dev/mips64-elf/lib\libc.a(lib_a-strcpy.o)
 .gnu.attributes
                0x0000000000000120       0x10 C:/Users/spenc/Dropbox/N64_DEV_STUFF/n64dev/mips64-elf/lib\libc.a(lib_a-freer.o)
 .gnu.attributes
                0x0000000000000130       0x10 C:/Users/spenc/Dropbox/N64_DEV_STUFF/n64dev/mips64-elf/lib\libc.a(lib_a-impure.o)
 .gnu.attributes
                0x0000000000000140       0x10 C:/Users/spenc/Dropbox/N64_DEV_STUFF/n64dev/mips64-elf/lib\libc.a(lib_a-reent.o)
 .gnu.attributes
                0x0000000000000150       0x10 C:/Users/spenc/Dropbox/N64_DEV_STUFF/n64dev/lib\libdragonsys.a(system.o)

.code           0x0000000000000000        0x0
 .code          0x0000000000000000        0x0 C:/Users/spenc/Dropbox/N64_DEV_STUFF/n64dev/lib\libdragon.a(entrypoint.o)

.debug_abbrev   0x0000000000000000      0xec1
 .debug_abbrev  0x0000000000000000      0x190 C:/Users/spenc/Dropbox/N64_DEV_STUFF/n64dev/mips64-elf/lib\libc.a(lib_a-malloc.o)
 .debug_abbrev  0x0000000000000190      0x221 C:/Users/spenc/Dropbox/N64_DEV_STUFF/n64dev/mips64-elf/lib\libc.a(lib_a-mallocr.o)
 .debug_abbrev  0x00000000000003b1       0xd6 C:/Users/spenc/Dropbox/N64_DEV_STUFF/n64dev/mips64-elf/lib\libc.a(lib_a-memcpy.o)
 .debug_abbrev  0x0000000000000487       0xc8 C:/Users/spenc/Dropbox/N64_DEV_STUFF/n64dev/mips64-elf/lib\libc.a(lib_a-memset.o)
 .debug_abbrev  0x000000000000054f      0x173 C:/Users/spenc/Dropbox/N64_DEV_STUFF/n64dev/mips64-elf/lib\libc.a(lib_a-mlock.o)
 .debug_abbrev  0x00000000000006c2      0x197 C:/Users/spenc/Dropbox/N64_DEV_STUFF/n64dev/mips64-elf/lib\libc.a(lib_a-sbrkr.o)
 .debug_abbrev  0x0000000000000859       0xa3 C:/Users/spenc/Dropbox/N64_DEV_STUFF/n64dev/mips64-elf/lib\libc.a(lib_a-strcmp.o)
 .debug_abbrev  0x00000000000008fc       0x89 C:/Users/spenc/Dropbox/N64_DEV_STUFF/n64dev/mips64-elf/lib\libc.a(lib_a-strcpy.o)
 .debug_abbrev  0x0000000000000985      0x1e2 C:/Users/spenc/Dropbox/N64_DEV_STUFF/n64dev/mips64-elf/lib\libc.a(lib_a-freer.o)
 .debug_abbrev  0x0000000000000b67      0x160 C:/Users/spenc/Dropbox/N64_DEV_STUFF/n64dev/mips64-elf/lib\libc.a(lib_a-impure.o)
 .debug_abbrev  0x0000000000000cc7      0x1fa C:/Users/spenc/Dropbox/N64_DEV_STUFF/n64dev/mips64-elf/lib\libc.a(lib_a-reent.o)

.debug_info     0x0000000000000000     0x4e4b
 .debug_info    0x0000000000000000      0x997 C:/Users/spenc/Dropbox/N64_DEV_STUFF/n64dev/mips64-elf/lib\libc.a(lib_a-malloc.o)
 .debug_info    0x0000000000000997      0xcfd C:/Users/spenc/Dropbox/N64_DEV_STUFF/n64dev/mips64-elf/lib\libc.a(lib_a-mallocr.o)
 .debug_info    0x0000000000001694      0x194 C:/Users/spenc/Dropbox/N64_DEV_STUFF/n64dev/mips64-elf/lib\libc.a(lib_a-memcpy.o)
 .debug_info    0x0000000000001828      0x13d C:/Users/spenc/Dropbox/N64_DEV_STUFF/n64dev/mips64-elf/lib\libc.a(lib_a-memset.o)
 .debug_info    0x0000000000001965      0x980 C:/Users/spenc/Dropbox/N64_DEV_STUFF/n64dev/mips64-elf/lib\libc.a(lib_a-mlock.o)
 .debug_info    0x00000000000022e5      0x98f C:/Users/spenc/Dropbox/N64_DEV_STUFF/n64dev/mips64-elf/lib\libc.a(lib_a-sbrkr.o)
 .debug_info    0x0000000000002c74      0x123 C:/Users/spenc/Dropbox/N64_DEV_STUFF/n64dev/mips64-elf/lib\libc.a(lib_a-strcmp.o)
 .debug_info    0x0000000000002d97      0x10e C:/Users/spenc/Dropbox/N64_DEV_STUFF/n64dev/mips64-elf/lib\libc.a(lib_a-strcpy.o)
 .debug_info    0x0000000000002ea5      0xbf2 C:/Users/spenc/Dropbox/N64_DEV_STUFF/n64dev/mips64-elf/lib\libc.a(lib_a-freer.o)
 .debug_info    0x0000000000003a97      0x968 C:/Users/spenc/Dropbox/N64_DEV_STUFF/n64dev/mips64-elf/lib\libc.a(lib_a-impure.o)
 .debug_info    0x00000000000043ff      0xa4c C:/Users/spenc/Dropbox/N64_DEV_STUFF/n64dev/mips64-elf/lib\libc.a(lib_a-reent.o)

.debug_line     0x0000000000000000      0xe10
 .debug_line    0x0000000000000000      0x157 C:/Users/spenc/Dropbox/N64_DEV_STUFF/n64dev/mips64-elf/lib\libc.a(lib_a-malloc.o)
 .debug_line    0x0000000000000157      0x290 C:/Users/spenc/Dropbox/N64_DEV_STUFF/n64dev/mips64-elf/lib\libc.a(lib_a-mallocr.o)
 .debug_line    0x00000000000003e7       0xfa C:/Users/spenc/Dropbox/N64_DEV_STUFF/n64dev/mips64-elf/lib\libc.a(lib_a-memcpy.o)
 .debug_line    0x00000000000004e1      0x144 C:/Users/spenc/Dropbox/N64_DEV_STUFF/n64dev/mips64-elf/lib\libc.a(lib_a-memset.o)
 .debug_line    0x0000000000000625      0x10c C:/Users/spenc/Dropbox/N64_DEV_STUFF/n64dev/mips64-elf/lib\libc.a(lib_a-mlock.o)
 .debug_line    0x0000000000000731      0x157 C:/Users/spenc/Dropbox/N64_DEV_STUFF/n64dev/mips64-elf/lib\libc.a(lib_a-sbrkr.o)
 .debug_line    0x0000000000000888       0xca C:/Users/spenc/Dropbox/N64_DEV_STUFF/n64dev/mips64-elf/lib\libc.a(lib_a-strcmp.o)
 .debug_line    0x0000000000000952       0xc4 C:/Users/spenc/Dropbox/N64_DEV_STUFF/n64dev/mips64-elf/lib\libc.a(lib_a-strcpy.o)
 .debug_line    0x0000000000000a16      0x1a9 C:/Users/spenc/Dropbox/N64_DEV_STUFF/n64dev/mips64-elf/lib\libc.a(lib_a-freer.o)
 .debug_line    0x0000000000000bbf       0xfa C:/Users/spenc/Dropbox/N64_DEV_STUFF/n64dev/mips64-elf/lib\libc.a(lib_a-impure.o)
 .debug_line    0x0000000000000cb9      0x157 C:/Users/spenc/Dropbox/N64_DEV_STUFF/n64dev/mips64-elf/lib\libc.a(lib_a-reent.o)

.debug_loc      0x0000000000000000     0x1406
 .debug_loc     0x0000000000000000       0x3c C:/Users/spenc/Dropbox/N64_DEV_STUFF/n64dev/mips64-elf/lib\libc.a(lib_a-malloc.o)
 .debug_loc     0x000000000000003c      0x8c6 C:/Users/spenc/Dropbox/N64_DEV_STUFF/n64dev/mips64-elf/lib\libc.a(lib_a-mallocr.o)
 .debug_loc     0x0000000000000902      0x244 C:/Users/spenc/Dropbox/N64_DEV_STUFF/n64dev/mips64-elf/lib\libc.a(lib_a-memcpy.o)
 .debug_loc     0x0000000000000b46       0xf3 C:/Users/spenc/Dropbox/N64_DEV_STUFF/n64dev/mips64-elf/lib\libc.a(lib_a-memset.o)
 .debug_loc     0x0000000000000c39       0x6e C:/Users/spenc/Dropbox/N64_DEV_STUFF/n64dev/mips64-elf/lib\libc.a(lib_a-sbrkr.o)
 .debug_loc     0x0000000000000ca7       0xbf C:/Users/spenc/Dropbox/N64_DEV_STUFF/n64dev/mips64-elf/lib\libc.a(lib_a-strcmp.o)
 .debug_loc     0x0000000000000d66       0x9e C:/Users/spenc/Dropbox/N64_DEV_STUFF/n64dev/mips64-elf/lib\libc.a(lib_a-strcpy.o)
 .debug_loc     0x0000000000000e04      0x424 C:/Users/spenc/Dropbox/N64_DEV_STUFF/n64dev/mips64-elf/lib\libc.a(lib_a-freer.o)
 .debug_loc     0x0000000000001228      0x1de C:/Users/spenc/Dropbox/N64_DEV_STUFF/n64dev/mips64-elf/lib\libc.a(lib_a-reent.o)

.debug_pubnames
                0x0000000000000000      0x27a
 .debug_pubnames
                0x0000000000000000       0x26 C:/Users/spenc/Dropbox/N64_DEV_STUFF/n64dev/mips64-elf/lib\libc.a(lib_a-malloc.o)
 .debug_pubnames
                0x0000000000000026       0xce C:/Users/spenc/Dropbox/N64_DEV_STUFF/n64dev/mips64-elf/lib\libc.a(lib_a-mallocr.o)
 .debug_pubnames
                0x00000000000000f4       0x1d C:/Users/spenc/Dropbox/N64_DEV_STUFF/n64dev/mips64-elf/lib\libc.a(lib_a-memcpy.o)
 .debug_pubnames
                0x0000000000000111       0x1d C:/Users/spenc/Dropbox/N64_DEV_STUFF/n64dev/mips64-elf/lib\libc.a(lib_a-memset.o)
 .debug_pubnames
                0x000000000000012e       0x38 C:/Users/spenc/Dropbox/N64_DEV_STUFF/n64dev/mips64-elf/lib\libc.a(lib_a-mlock.o)
 .debug_pubnames
                0x0000000000000166       0x1e C:/Users/spenc/Dropbox/N64_DEV_STUFF/n64dev/mips64-elf/lib\libc.a(lib_a-sbrkr.o)
 .debug_pubnames
                0x0000000000000184       0x1d C:/Users/spenc/Dropbox/N64_DEV_STUFF/n64dev/mips64-elf/lib\libc.a(lib_a-strcmp.o)
 .debug_pubnames
                0x00000000000001a1       0x1d C:/Users/spenc/Dropbox/N64_DEV_STUFF/n64dev/mips64-elf/lib\libc.a(lib_a-strcpy.o)
 .debug_pubnames
                0x00000000000001be       0x31 C:/Users/spenc/Dropbox/N64_DEV_STUFF/n64dev/mips64-elf/lib\libc.a(lib_a-freer.o)
 .debug_pubnames
                0x00000000000001ef       0x39 C:/Users/spenc/Dropbox/N64_DEV_STUFF/n64dev/mips64-elf/lib\libc.a(lib_a-impure.o)
 .debug_pubnames
                0x0000000000000228       0x52 C:/Users/spenc/Dropbox/N64_DEV_STUFF/n64dev/mips64-elf/lib\libc.a(lib_a-reent.o)

.debug_aranges  0x0000000000000000      0x140
 .debug_aranges
                0x0000000000000000       0x20 C:/Users/spenc/Dropbox/N64_DEV_STUFF/n64dev/mips64-elf/lib\libc.a(lib_a-malloc.o)
 .debug_aranges
                0x0000000000000020       0x20 C:/Users/spenc/Dropbox/N64_DEV_STUFF/n64dev/mips64-elf/lib\libc.a(lib_a-mallocr.o)
 .debug_aranges
                0x0000000000000040       0x20 C:/Users/spenc/Dropbox/N64_DEV_STUFF/n64dev/mips64-elf/lib\libc.a(lib_a-memcpy.o)
 .debug_aranges
                0x0000000000000060       0x20 C:/Users/spenc/Dropbox/N64_DEV_STUFF/n64dev/mips64-elf/lib\libc.a(lib_a-memset.o)
 .debug_aranges
                0x0000000000000080       0x20 C:/Users/spenc/Dropbox/N64_DEV_STUFF/n64dev/mips64-elf/lib\libc.a(lib_a-mlock.o)
 .debug_aranges
                0x00000000000000a0       0x20 C:/Users/spenc/Dropbox/N64_DEV_STUFF/n64dev/mips64-elf/lib\libc.a(lib_a-sbrkr.o)
 .debug_aranges
                0x00000000000000c0       0x20 C:/Users/spenc/Dropbox/N64_DEV_STUFF/n64dev/mips64-elf/lib\libc.a(lib_a-strcmp.o)
 .debug_aranges
                0x00000000000000e0       0x20 C:/Users/spenc/Dropbox/N64_DEV_STUFF/n64dev/mips64-elf/lib\libc.a(lib_a-strcpy.o)
 .debug_aranges
                0x0000000000000100       0x20 C:/Users/spenc/Dropbox/N64_DEV_STUFF/n64dev/mips64-elf/lib\libc.a(lib_a-freer.o)
 .debug_aranges
                0x0000000000000120       0x20 C:/Users/spenc/Dropbox/N64_DEV_STUFF/n64dev/mips64-elf/lib\libc.a(lib_a-reent.o)

.debug_str      0x0000000000000000      0xa93
 .debug_str     0x0000000000000000      0x46c C:/Users/spenc/Dropbox/N64_DEV_STUFF/n64dev/mips64-elf/lib\libc.a(lib_a-malloc.o)
                                        0x4ea (size before relaxing)
 .debug_str     0x000000000000046c      0x206 C:/Users/spenc/Dropbox/N64_DEV_STUFF/n64dev/mips64-elf/lib\libc.a(lib_a-mallocr.o)
                                        0x6bf (size before relaxing)
 .debug_str     0x0000000000000672       0xe1 C:/Users/spenc/Dropbox/N64_DEV_STUFF/n64dev/mips64-elf/lib\libc.a(lib_a-memcpy.o)
                                        0x114 (size before relaxing)
 .debug_str     0x0000000000000753       0x72 C:/Users/spenc/Dropbox/N64_DEV_STUFF/n64dev/mips64-elf/lib\libc.a(lib_a-memset.o)
                                        0x15b (size before relaxing)
 .debug_str     0x00000000000007c5       0x6b C:/Users/spenc/Dropbox/N64_DEV_STUFF/n64dev/mips64-elf/lib\libc.a(lib_a-mlock.o)
                                        0x4f1 (size before relaxing)
 .debug_str     0x0000000000000830       0x8f C:/Users/spenc/Dropbox/N64_DEV_STUFF/n64dev/mips64-elf/lib\libc.a(lib_a-sbrkr.o)
                                        0x4d9 (size before relaxing)
 .debug_str     0x00000000000008bf       0x4e C:/Users/spenc/Dropbox/N64_DEV_STUFF/n64dev/mips64-elf/lib\libc.a(lib_a-strcmp.o)
                                        0x12b (size before relaxing)
 .debug_str     0x000000000000090d       0x82 C:/Users/spenc/Dropbox/N64_DEV_STUFF/n64dev/mips64-elf/lib\libc.a(lib_a-strcpy.o)
                                        0x139 (size before relaxing)
 .debug_str     0x000000000000098f       0x3c C:/Users/spenc/Dropbox/N64_DEV_STUFF/n64dev/mips64-elf/lib\libc.a(lib_a-freer.o)
                                        0x611 (size before relaxing)
 .debug_str     0x00000000000009cb       0x57 C:/Users/spenc/Dropbox/N64_DEV_STUFF/n64dev/mips64-elf/lib\libc.a(lib_a-impure.o)
                                        0x4e8 (size before relaxing)
 .debug_str     0x0000000000000a22       0x71 C:/Users/spenc/Dropbox/N64_DEV_STUFF/n64dev/mips64-elf/lib\libc.a(lib_a-reent.o)
                                        0x50d (size before relaxing)

.debug_ranges   0x0000000000000000       0x60
 .debug_ranges  0x0000000000000000       0x60 C:/Users/spenc/Dropbox/N64_DEV_STUFF/n64dev/mips64-elf/lib\libc.a(lib_a-mallocr.o)
