Archive member included because of file (symbol)

C:/Users/spenc/Dropbox/N64_DEV_STUFF/n64dev/lib\libdragon.a(interrupt.o)
                              LibN64.o (init_interrupts)
C:/Users/spenc/Dropbox/N64_DEV_STUFF/n64dev/lib\libdragon.a(entrypoint.o)
                              (_start)
C:/Users/spenc/Dropbox/N64_DEV_STUFF/n64dev/lib\libdragon.a(dragonfs.o)
                              LibN64.o (dfs_init)
C:/Users/spenc/Dropbox/N64_DEV_STUFF/n64dev/lib\libdragon.a(display.o)
                              LibN64.o (display_init)
C:/Users/spenc/Dropbox/N64_DEV_STUFF/n64dev/lib\libdragon.a(controller.o)
                              LibN64.o (controller_init)
C:/Users/spenc/Dropbox/N64_DEV_STUFF/n64dev/lib\libdragon.a(graphics.o)
                              LibN64.o (graphics_make_color)
C:/Users/spenc/Dropbox/N64_DEV_STUFF/n64dev/lib\libdragon.a(dma.o)
                              C:/Users/spenc/Dropbox/N64_DEV_STUFF/n64dev/lib\libdragon.a(dragonfs.o) (dma_read)
C:/Users/spenc/Dropbox/N64_DEV_STUFF/n64dev/lib\libdragon.a(timer.o)
                              LibN64.o (timer_init)
C:/Users/spenc/Dropbox/N64_DEV_STUFF/n64dev/lib\libdragon.a(n64sys.o)
                              C:/Users/spenc/Dropbox/N64_DEV_STUFF/n64dev/lib\libdragon.a(dragonfs.o) (data_cache_hit_invalidate)
C:/Users/spenc/Dropbox/N64_DEV_STUFF/n64dev/lib\libdragon.a(inthandler.o)
                              C:/Users/spenc/Dropbox/N64_DEV_STUFF/n64dev/lib\libdragon.a(entrypoint.o) (inthandler)
C:/Users/spenc/Dropbox/N64_DEV_STUFF/n64dev/lib\libdragon.a(exception.o)
                              C:/Users/spenc/Dropbox/N64_DEV_STUFF/n64dev/lib\libdragon.a(inthandler.o) (__onCriticalException)
C:/Users/spenc/Dropbox/N64_DEV_STUFF/n64dev/mips64-elf/lib\libm.a(lib_a-sf_cos.o)
                              LibN64.o (cosf)
C:/Users/spenc/Dropbox/N64_DEV_STUFF/n64dev/mips64-elf/lib\libm.a(lib_a-sf_sin.o)
                              LibN64.o (sinf)
C:/Users/spenc/Dropbox/N64_DEV_STUFF/n64dev/mips64-elf/lib\libm.a(lib_a-ef_rem_pio2.o)
                              C:/Users/spenc/Dropbox/N64_DEV_STUFF/n64dev/mips64-elf/lib\libm.a(lib_a-sf_cos.o) (__ieee754_rem_pio2f)
C:/Users/spenc/Dropbox/N64_DEV_STUFF/n64dev/mips64-elf/lib\libm.a(lib_a-kf_cos.o)
                              C:/Users/spenc/Dropbox/N64_DEV_STUFF/n64dev/mips64-elf/lib\libm.a(lib_a-sf_cos.o) (__kernel_cosf)
C:/Users/spenc/Dropbox/N64_DEV_STUFF/n64dev/mips64-elf/lib\libm.a(lib_a-kf_rem_pio2.o)
                              C:/Users/spenc/Dropbox/N64_DEV_STUFF/n64dev/mips64-elf/lib\libm.a(lib_a-ef_rem_pio2.o) (__kernel_rem_pio2f)
C:/Users/spenc/Dropbox/N64_DEV_STUFF/n64dev/mips64-elf/lib\libm.a(lib_a-kf_sin.o)
                              C:/Users/spenc/Dropbox/N64_DEV_STUFF/n64dev/mips64-elf/lib\libm.a(lib_a-sf_cos.o) (__kernel_sinf)
C:/Users/spenc/Dropbox/N64_DEV_STUFF/n64dev/mips64-elf/lib\libm.a(lib_a-sf_fabs.o)
                              C:/Users/spenc/Dropbox/N64_DEV_STUFF/n64dev/mips64-elf/lib\libm.a(lib_a-ef_rem_pio2.o) (fabsf)
C:/Users/spenc/Dropbox/N64_DEV_STUFF/n64dev/mips64-elf/lib\libm.a(lib_a-sf_floor.o)
                              C:/Users/spenc/Dropbox/N64_DEV_STUFF/n64dev/mips64-elf/lib\libm.a(lib_a-kf_rem_pio2.o) (floorf)
C:/Users/spenc/Dropbox/N64_DEV_STUFF/n64dev/mips64-elf/lib\libm.a(lib_a-sf_scalbn.o)
                              C:/Users/spenc/Dropbox/N64_DEV_STUFF/n64dev/mips64-elf/lib\libm.a(lib_a-kf_rem_pio2.o) (scalbnf)
C:/Users/spenc/Dropbox/N64_DEV_STUFF/n64dev/mips64-elf/lib\libm.a(lib_a-sf_copysign.o)
                              C:/Users/spenc/Dropbox/N64_DEV_STUFF/n64dev/mips64-elf/lib\libm.a(lib_a-sf_scalbn.o) (copysignf)
C:/Users/spenc/Dropbox/N64_DEV_STUFF/n64dev/mips64-elf/lib\libc.a(lib_a-malloc.o)
                              C:/Users/spenc/Dropbox/N64_DEV_STUFF/n64dev/lib\libdragon.a(interrupt.o) (free)
C:/Users/spenc/Dropbox/N64_DEV_STUFF/n64dev/mips64-elf/lib\libc.a(lib_a-mallocr.o)
                              C:/Users/spenc/Dropbox/N64_DEV_STUFF/n64dev/mips64-elf/lib\libc.a(lib_a-malloc.o) (_malloc_r)
C:/Users/spenc/Dropbox/N64_DEV_STUFF/n64dev/mips64-elf/lib\libc.a(lib_a-memcpy.o)
                              C:/Users/spenc/Dropbox/N64_DEV_STUFF/n64dev/lib\libdragon.a(dragonfs.o) (memcpy)
C:/Users/spenc/Dropbox/N64_DEV_STUFF/n64dev/mips64-elf/lib\libc.a(lib_a-memset.o)
                              C:/Users/spenc/Dropbox/N64_DEV_STUFF/n64dev/lib\libdragon.a(dragonfs.o) (memset)
C:/Users/spenc/Dropbox/N64_DEV_STUFF/n64dev/mips64-elf/lib\libc.a(lib_a-mlock.o)
                              C:/Users/spenc/Dropbox/N64_DEV_STUFF/n64dev/mips64-elf/lib\libc.a(lib_a-mallocr.o) (__malloc_lock)
C:/Users/spenc/Dropbox/N64_DEV_STUFF/n64dev/mips64-elf/lib\libc.a(lib_a-sbrkr.o)
                              C:/Users/spenc/Dropbox/N64_DEV_STUFF/n64dev/mips64-elf/lib\libc.a(lib_a-mallocr.o) (_sbrk_r)
C:/Users/spenc/Dropbox/N64_DEV_STUFF/n64dev/mips64-elf/lib\libc.a(lib_a-sprintf.o)
                              main.o (sprintf)
C:/Users/spenc/Dropbox/N64_DEV_STUFF/n64dev/mips64-elf/lib\libc.a(lib_a-strcmp.o)
                              C:/Users/spenc/Dropbox/N64_DEV_STUFF/n64dev/lib\libdragon.a(dragonfs.o) (strcmp)
C:/Users/spenc/Dropbox/N64_DEV_STUFF/n64dev/mips64-elf/lib\libc.a(lib_a-strcpy.o)
                              C:/Users/spenc/Dropbox/N64_DEV_STUFF/n64dev/lib\libdragon.a(dragonfs.o) (strcpy)
C:/Users/spenc/Dropbox/N64_DEV_STUFF/n64dev/mips64-elf/lib\libc.a(lib_a-strlen.o)
                              main.o (strlen)
C:/Users/spenc/Dropbox/N64_DEV_STUFF/n64dev/mips64-elf/lib\libc.a(lib_a-svfprintf.o)
                              C:/Users/spenc/Dropbox/N64_DEV_STUFF/n64dev/mips64-elf/lib\libc.a(lib_a-sprintf.o) (_svfprintf_r)
C:/Users/spenc/Dropbox/N64_DEV_STUFF/n64dev/mips64-elf/lib\libc.a(lib_a-dtoa.o)
                              C:/Users/spenc/Dropbox/N64_DEV_STUFF/n64dev/mips64-elf/lib\libc.a(lib_a-svfprintf.o) (_dtoa_r)
C:/Users/spenc/Dropbox/N64_DEV_STUFF/n64dev/mips64-elf/lib\libc.a(lib_a-freer.o)
                              C:/Users/spenc/Dropbox/N64_DEV_STUFF/n64dev/mips64-elf/lib\libc.a(lib_a-malloc.o) (_free_r)
C:/Users/spenc/Dropbox/N64_DEV_STUFF/n64dev/mips64-elf/lib\libc.a(lib_a-impure.o)
                              C:/Users/spenc/Dropbox/N64_DEV_STUFF/n64dev/mips64-elf/lib\libc.a(lib_a-malloc.o) (_impure_ptr)
C:/Users/spenc/Dropbox/N64_DEV_STUFF/n64dev/mips64-elf/lib\libc.a(lib_a-locale.o)
                              C:/Users/spenc/Dropbox/N64_DEV_STUFF/n64dev/mips64-elf/lib\libc.a(lib_a-svfprintf.o) (_localeconv_r)
C:/Users/spenc/Dropbox/N64_DEV_STUFF/n64dev/mips64-elf/lib\libc.a(lib_a-memchr.o)
                              C:/Users/spenc/Dropbox/N64_DEV_STUFF/n64dev/mips64-elf/lib\libc.a(lib_a-svfprintf.o) (memchr)
C:/Users/spenc/Dropbox/N64_DEV_STUFF/n64dev/mips64-elf/lib\libc.a(lib_a-memmove.o)
                              C:/Users/spenc/Dropbox/N64_DEV_STUFF/n64dev/mips64-elf/lib\libc.a(lib_a-svfprintf.o) (memmove)
C:/Users/spenc/Dropbox/N64_DEV_STUFF/n64dev/mips64-elf/lib\libc.a(lib_a-mprec.o)
                              C:/Users/spenc/Dropbox/N64_DEV_STUFF/n64dev/mips64-elf/lib\libc.a(lib_a-dtoa.o) (_Bfree)
C:/Users/spenc/Dropbox/N64_DEV_STUFF/n64dev/mips64-elf/lib\libc.a(lib_a-reallocr.o)
                              C:/Users/spenc/Dropbox/N64_DEV_STUFF/n64dev/mips64-elf/lib\libc.a(lib_a-svfprintf.o) (_realloc_r)
C:/Users/spenc/Dropbox/N64_DEV_STUFF/n64dev/mips64-elf/lib\libc.a(lib_a-reent.o)
                              C:/Users/spenc/Dropbox/N64_DEV_STUFF/n64dev/mips64-elf/lib\libc.a(lib_a-sbrkr.o) (errno)
C:/Users/spenc/Dropbox/N64_DEV_STUFF/n64dev/mips64-elf/lib\libc.a(lib_a-s_isinfd.o)
                              C:/Users/spenc/Dropbox/N64_DEV_STUFF/n64dev/mips64-elf/lib\libc.a(lib_a-svfprintf.o) (__isinfd)
C:/Users/spenc/Dropbox/N64_DEV_STUFF/n64dev/mips64-elf/lib\libc.a(lib_a-s_isnand.o)
                              C:/Users/spenc/Dropbox/N64_DEV_STUFF/n64dev/mips64-elf/lib\libc.a(lib_a-svfprintf.o) (__isnand)
C:/Users/spenc/Dropbox/N64_DEV_STUFF/n64dev/mips64-elf/lib\libc.a(lib_a-callocr.o)
                              C:/Users/spenc/Dropbox/N64_DEV_STUFF/n64dev/mips64-elf/lib\libc.a(lib_a-mprec.o) (_calloc_r)
C:/Users/spenc/Dropbox/N64_DEV_STUFF/n64dev/lib\libdragonsys.a(system.o)
                              C:/Users/spenc/Dropbox/N64_DEV_STUFF/n64dev/lib\libdragon.a(dragonfs.o) (attach_filesystem)

Allocating common symbols
Common symbol       size              file

__width             0x4               C:/Users/spenc/Dropbox/N64_DEV_STUFF/n64dev/lib\libdragon.a(display.o)
__bitdepth          0x4               C:/Users/spenc/Dropbox/N64_DEV_STUFF/n64dev/lib\libdragon.a(display.o)
errno               0x4               C:/Users/spenc/Dropbox/N64_DEV_STUFF/n64dev/mips64-elf/lib\libc.a(lib_a-reent.o)
__height            0x4               C:/Users/spenc/Dropbox/N64_DEV_STUFF/n64dev/lib\libdragon.a(display.o)
__registers         0x70              C:/Users/spenc/Dropbox/N64_DEV_STUFF/n64dev/lib\libdragon.a(display.o)
__safe_buffer       0xc               C:/Users/spenc/Dropbox/N64_DEV_STUFF/n64dev/lib\libdragon.a(display.o)

Discarded input sections

 .reginfo       0x0000000000000000        0x0 main.o
 .reginfo       0x0000000000000000        0x0 C:/Users/spenc/Dropbox/N64_DEV_STUFF/n64dev/lib\libdragon.a(interrupt.o)
 .reginfo       0x0000000000000000        0x0 C:/Users/spenc/Dropbox/N64_DEV_STUFF/n64dev/lib\libdragon.a(entrypoint.o)
 .reginfo       0x0000000000000000        0x0 C:/Users/spenc/Dropbox/N64_DEV_STUFF/n64dev/lib\libdragon.a(dragonfs.o)
 .reginfo       0x0000000000000000        0x0 C:/Users/spenc/Dropbox/N64_DEV_STUFF/n64dev/lib\libdragon.a(display.o)
 .reginfo       0x0000000000000000        0x0 C:/Users/spenc/Dropbox/N64_DEV_STUFF/n64dev/lib\libdragon.a(controller.o)
 .reginfo       0x0000000000000000        0x0 C:/Users/spenc/Dropbox/N64_DEV_STUFF/n64dev/lib\libdragon.a(graphics.o)
 .reginfo       0x0000000000000000        0x0 C:/Users/spenc/Dropbox/N64_DEV_STUFF/n64dev/lib\libdragon.a(dma.o)
 .reginfo       0x0000000000000000        0x0 C:/Users/spenc/Dropbox/N64_DEV_STUFF/n64dev/lib\libdragon.a(timer.o)
 .reginfo       0x0000000000000000        0x0 C:/Users/spenc/Dropbox/N64_DEV_STUFF/n64dev/lib\libdragon.a(n64sys.o)
 .reginfo       0x0000000000000000        0x0 C:/Users/spenc/Dropbox/N64_DEV_STUFF/n64dev/lib\libdragon.a(inthandler.o)
 .reginfo       0x0000000000000000        0x0 C:/Users/spenc/Dropbox/N64_DEV_STUFF/n64dev/lib\libdragon.a(exception.o)
 .reginfo       0x0000000000000000        0x0 C:/Users/spenc/Dropbox/N64_DEV_STUFF/n64dev/mips64-elf/lib\libm.a(lib_a-sf_cos.o)
 .reginfo       0x0000000000000000        0x0 C:/Users/spenc/Dropbox/N64_DEV_STUFF/n64dev/mips64-elf/lib\libm.a(lib_a-sf_sin.o)
 .reginfo       0x0000000000000000        0x0 C:/Users/spenc/Dropbox/N64_DEV_STUFF/n64dev/mips64-elf/lib\libm.a(lib_a-ef_rem_pio2.o)
 .reginfo       0x0000000000000000        0x0 C:/Users/spenc/Dropbox/N64_DEV_STUFF/n64dev/mips64-elf/lib\libm.a(lib_a-kf_cos.o)
 .reginfo       0x0000000000000000        0x0 C:/Users/spenc/Dropbox/N64_DEV_STUFF/n64dev/mips64-elf/lib\libm.a(lib_a-kf_rem_pio2.o)
 .reginfo       0x0000000000000000        0x0 C:/Users/spenc/Dropbox/N64_DEV_STUFF/n64dev/mips64-elf/lib\libm.a(lib_a-kf_sin.o)
 .reginfo       0x0000000000000000        0x0 C:/Users/spenc/Dropbox/N64_DEV_STUFF/n64dev/mips64-elf/lib\libm.a(lib_a-sf_fabs.o)
 .reginfo       0x0000000000000000        0x0 C:/Users/spenc/Dropbox/N64_DEV_STUFF/n64dev/mips64-elf/lib\libm.a(lib_a-sf_floor.o)
 .reginfo       0x0000000000000000        0x0 C:/Users/spenc/Dropbox/N64_DEV_STUFF/n64dev/mips64-elf/lib\libm.a(lib_a-sf_scalbn.o)
 .reginfo       0x0000000000000000        0x0 C:/Users/spenc/Dropbox/N64_DEV_STUFF/n64dev/mips64-elf/lib\libm.a(lib_a-sf_copysign.o)
 .reginfo       0x0000000000000000        0x0 C:/Users/spenc/Dropbox/N64_DEV_STUFF/n64dev/mips64-elf/lib\libc.a(lib_a-malloc.o)
 .reginfo       0x0000000000000000        0x0 C:/Users/spenc/Dropbox/N64_DEV_STUFF/n64dev/mips64-elf/lib\libc.a(lib_a-mallocr.o)
 .reginfo       0x0000000000000000        0x0 C:/Users/spenc/Dropbox/N64_DEV_STUFF/n64dev/mips64-elf/lib\libc.a(lib_a-memcpy.o)
 .reginfo       0x0000000000000000        0x0 C:/Users/spenc/Dropbox/N64_DEV_STUFF/n64dev/mips64-elf/lib\libc.a(lib_a-memset.o)
 .reginfo       0x0000000000000000        0x0 C:/Users/spenc/Dropbox/N64_DEV_STUFF/n64dev/mips64-elf/lib\libc.a(lib_a-mlock.o)
 .reginfo       0x0000000000000000        0x0 C:/Users/spenc/Dropbox/N64_DEV_STUFF/n64dev/mips64-elf/lib\libc.a(lib_a-sbrkr.o)
 .reginfo       0x0000000000000000        0x0 C:/Users/spenc/Dropbox/N64_DEV_STUFF/n64dev/mips64-elf/lib\libc.a(lib_a-sprintf.o)
 .reginfo       0x0000000000000000        0x0 C:/Users/spenc/Dropbox/N64_DEV_STUFF/n64dev/mips64-elf/lib\libc.a(lib_a-strcmp.o)
 .reginfo       0x0000000000000000        0x0 C:/Users/spenc/Dropbox/N64_DEV_STUFF/n64dev/mips64-elf/lib\libc.a(lib_a-strcpy.o)
 .reginfo       0x0000000000000000        0x0 C:/Users/spenc/Dropbox/N64_DEV_STUFF/n64dev/mips64-elf/lib\libc.a(lib_a-strlen.o)
 .reginfo       0x0000000000000000        0x0 C:/Users/spenc/Dropbox/N64_DEV_STUFF/n64dev/mips64-elf/lib\libc.a(lib_a-svfprintf.o)
 .reginfo       0x0000000000000000        0x0 C:/Users/spenc/Dropbox/N64_DEV_STUFF/n64dev/mips64-elf/lib\libc.a(lib_a-dtoa.o)
 .reginfo       0x0000000000000000        0x0 C:/Users/spenc/Dropbox/N64_DEV_STUFF/n64dev/mips64-elf/lib\libc.a(lib_a-freer.o)
 .reginfo       0x0000000000000000        0x0 C:/Users/spenc/Dropbox/N64_DEV_STUFF/n64dev/mips64-elf/lib\libc.a(lib_a-impure.o)
 .reginfo       0x0000000000000000        0x0 C:/Users/spenc/Dropbox/N64_DEV_STUFF/n64dev/mips64-elf/lib\libc.a(lib_a-locale.o)
 .reginfo       0x0000000000000000        0x0 C:/Users/spenc/Dropbox/N64_DEV_STUFF/n64dev/mips64-elf/lib\libc.a(lib_a-memchr.o)
 .reginfo       0x0000000000000000        0x0 C:/Users/spenc/Dropbox/N64_DEV_STUFF/n64dev/mips64-elf/lib\libc.a(lib_a-memmove.o)
 .reginfo       0x0000000000000000        0x0 C:/Users/spenc/Dropbox/N64_DEV_STUFF/n64dev/mips64-elf/lib\libc.a(lib_a-mprec.o)
 .reginfo       0x0000000000000000        0x0 C:/Users/spenc/Dropbox/N64_DEV_STUFF/n64dev/mips64-elf/lib\libc.a(lib_a-reallocr.o)
 .reginfo       0x0000000000000000        0x0 C:/Users/spenc/Dropbox/N64_DEV_STUFF/n64dev/mips64-elf/lib\libc.a(lib_a-reent.o)
 .reginfo       0x0000000000000000        0x0 C:/Users/spenc/Dropbox/N64_DEV_STUFF/n64dev/mips64-elf/lib\libc.a(lib_a-s_isinfd.o)
 .reginfo       0x0000000000000000        0x0 C:/Users/spenc/Dropbox/N64_DEV_STUFF/n64dev/mips64-elf/lib\libc.a(lib_a-s_isnand.o)
 .reginfo       0x0000000000000000        0x0 C:/Users/spenc/Dropbox/N64_DEV_STUFF/n64dev/mips64-elf/lib\libc.a(lib_a-callocr.o)
 .reginfo       0x0000000000000000        0x0 C:/Users/spenc/Dropbox/N64_DEV_STUFF/n64dev/lib\libdragonsys.a(system.o)

Memory Configuration

Name             Origin             Length             Attributes
ram              0x0000000080000400 0x00000000003ffc00 xw
*default*        0x0000000000000000 0xffffffffffffffff

Linker script and memory map

LOAD LibN64.o
LOAD main.o
                0x0000000000000000                __DYNAMIC = 0x0
                0x0000000080400000                PROVIDE (__stack, 0x80400000)

.text           0x0000000080000400     0xdc58 load address 0x0000000000000000
 *(.boot)
 .boot          0x0000000080000400      0x160 C:/Users/spenc/Dropbox/N64_DEV_STUFF/n64dev/lib\libdragon.a(entrypoint.o)
                0x0000000080000400                _start
                0x0000000080000560                . = ALIGN (0x10)
                0x0000000080000560                __text_start = .
 *(.text)
 .text          0x0000000080000560      0x5b8 LibN64.o
                0x0000000080000580                LibN64::KeyDDPressed()
                0x0000000080000a40                LibN64::LibN64(resolution_t, bitdepth_t)
                0x00000000800005a0                LibN64::ScreenWidth()
                0x0000000080000570                LibN64::KeyBPressed()
                0x00000000800005b0                LibN64::Close()
                0x0000000080000748                LibN64::DrawBox(int, int, int, unsigned long)
                0x0000000080000968                LibN64::LibN64(resolution_t, bitdepth_t)
                0x0000000080000568                LibN64::KeyAPressed()
                0x00000000800005a8                LibN64::ScreenHeight()
                0x00000000800005b8                LibN64::DrawText(int, int, char const*, unsigned long)
                0x0000000080000560                LibN64::FrameUpdate()
                0x0000000080000590                LibN64::KeyDRPressed()
                0x0000000080000598                LibN64::OnCreate()
                0x0000000080000628                LibN64::DrawCircle(int, int, int, unsigned long)
                0x0000000080000588                LibN64::KeyDLPressed()
                0x0000000080000578                LibN64::KeyDUPressed()
                0x0000000080000958                LibN64::ClearScreen()
                0x0000000080000770                LibN64::Begin()
 .text          0x0000000080000b18       0x50 main.o
                0x0000000080000b18                main
 .text          0x0000000080000b68      0x614 C:/Users/spenc/Dropbox/N64_DEV_STUFF/n64dev/lib\libdragon.a(interrupt.o)
                0x0000000080000f78                unregister_SP_handler
                0x0000000080000e34                register_PI_handler
                0x0000000080000da4                register_AI_handler
                0x0000000080000e7c                register_DP_handler
                0x0000000080000fc8                set_VI_interrupt
                0x0000000080000ea0                unregister_DP_handler
                0x0000000080000dc8                unregister_AI_handler
                0x0000000080000ffc                set_PI_interrupt
                0x0000000080000e58                unregister_PI_handler
                0x0000000080000dec                register_VI_handler
                0x0000000080001028                set_DP_interrupt
                0x0000000080001158                get_interrupts_state
                0x0000000080000f9c                set_AI_interrupt
                0x00000000800010ac                init_interrupts
                0x0000000080000ec4                register_TI_handler
                0x0000000080001054                set_SI_interrupt
                0x0000000080000ee8                unregister_TI_handler
                0x00000000800010e4                disable_interrupts
                0x0000000080000f0c                register_SI_handler
                0x0000000080000f54                register_SP_handler
                0x0000000080000f30                unregister_SI_handler
                0x0000000080001080                set_SP_interrupt
                0x0000000080000d84                __TI_handler
                0x0000000080000e10                unregister_VI_handler
                0x0000000080000c88                __MI_handler
                0x0000000080001124                enable_interrupts
 .text          0x000000008000117c        0x0 C:/Users/spenc/Dropbox/N64_DEV_STUFF/n64dev/lib\libdragon.a(entrypoint.o)
 .text          0x000000008000117c      0xef4 C:/Users/spenc/Dropbox/N64_DEV_STUFF/n64dev/lib\libdragon.a(dragonfs.o)
                0x0000000080001ef4                dfs_size
                0x0000000080001fb4                dfs_init
                0x0000000080001be0                dfs_seek
                0x00000000800019fc                dfs_open
                0x00000000800018e8                dfs_dir_findnext
                0x0000000080001b88                dfs_close
                0x00000000800017ac                dfs_dir_findfirst
                0x0000000080001770                dfs_chdir
                0x0000000080001f80                dfs_eof
                0x0000000080001cec                dfs_read
                0x0000000080001c98                dfs_tell
 .text          0x0000000080002070      0x9b4 C:/Users/spenc/Dropbox/N64_DEV_STUFF/n64dev/lib\libdragon.a(display.o)
                0x00000000800029d0                display_show
                0x000000008000215c                display_init_ex
                0x0000000080002854                display_close
                0x0000000080002810                display_init
                0x0000000080002940                display_lock
 .text          0x0000000080002a24      0xe68 C:/Users/spenc/Dropbox/N64_DEV_STUFF/n64dev/lib\libdragon.a(controller.o)
                0x0000000080002f20                get_keys_up
                0x000000008000332c                get_accessories_present
                0x0000000080003054                get_keys_pressed
                0x0000000080002d00                eeprom_present
                0x0000000080002cc4                controller_init
                0x0000000080003520                write_mempak_address
                0x00000000800033e0                read_mempak_address
                0x0000000080002fbc                get_keys_held
                0x0000000080002d98                eeprom_write
                0x0000000080002de4                controller_read
                0x00000000800032c4                get_controllers_present
                0x000000008000377c                identify_controller
                0x00000000800030a8                get_dpad_direction
                0x0000000080003830                rumble_stop
                0x0000000080002e84                get_keys_down
                0x0000000080002d40                eeprom_read
                0x00000000800031d8                execute_raw_command
                0x0000000080002e08                controller_scan
                0x00000000800037bc                rumble_start
                0x0000000080003664                identify_accessory
 .text          0x000000008000388c     0x1220 C:/Users/spenc/Dropbox/N64_DEV_STUFF/n64dev/lib\libdragon.a(graphics.o)
                0x000000008000393c                graphics_set_color
                0x0000000080003c84                graphics_draw_line_trans
                0x0000000080003b18                graphics_draw_line
                0x00000000800041b4                graphics_draw_character
                0x00000000800040b4                graphics_fill_screen
                0x00000000800039dc                graphics_draw_pixel_trans
                0x00000000800044b0                graphics_draw_sprite_stride
                0x0000000080004708                graphics_draw_sprite
                0x0000000080003efc                graphics_draw_box_trans
                0x00000000800043bc                graphics_draw_text
                0x0000000080003950                graphics_draw_pixel
                0x000000008000388c                graphics_convert_color
                0x0000000080003910                graphics_make_color
                0x0000000080004728                graphics_draw_sprite_trans_stride
                0x0000000080003df0                graphics_draw_box
                0x0000000080004a8c                graphics_draw_sprite_trans
 .text          0x0000000080004aac      0x1a8 C:/Users/spenc/Dropbox/N64_DEV_STUFF/n64dev/lib\libdragon.a(dma.o)
                0x0000000080004b3c                dma_write
                0x0000000080004abc                dma_read
                0x0000000080004c04                io_write
                0x0000000080004aac                dma_busy
                0x0000000080004bbc                io_read
 .text          0x0000000080004c54      0x484 C:/Users/spenc/Dropbox/N64_DEV_STUFF/n64dev/lib\libdragon.a(timer.o)
                0x000000008000503c                timer_close
                0x0000000080005008                delete_timer
                0x0000000080004e18                timer_init
                0x0000000080004f74                stop_timer
                0x00000000800050a4                timer_ticks
                0x0000000080004f00                start_timer
                0x0000000080004e5c                new_timer
 .text          0x00000000800050d8      0x1b0 C:/Users/spenc/Dropbox/N64_DEV_STUFF/n64dev/lib\libdragon.a(n64sys.o)
                0x00000000800051d4                data_cache_hit_writeback_invalidate
                0x000000008000512c                wait_ticks
                0x000000008000521c                inst_cache_hit_writeback
                0x0000000080005264                inst_cache_index_invalidate
                0x00000000800051f8                data_cache_index_writeback_invalidate
                0x00000000800051b0                data_cache_hit_invalidate
                0x00000000800050e4                sys_set_boot_cic
                0x0000000080005154                wait_ms
                0x0000000080005100                get_ticks
                0x00000000800050d8                sys_get_boot_cic
                0x000000008000510c                get_ticks_ms
                0x0000000080005240                inst_cache_hit_invalidate
                0x000000008000518c                data_cache_hit_writeback
 .text          0x0000000080005288      0x2f4 C:/Users/spenc/Dropbox/N64_DEV_STUFF/n64dev/lib\libdragon.a(inthandler.o)
                0x0000000080005288                inthandler
 .text          0x000000008000557c       0xac C:/Users/spenc/Dropbox/N64_DEV_STUFF/n64dev/lib\libdragon.a(exception.o)
                0x00000000800055d8                __onResetException
                0x0000000080005588                __onCriticalException
                0x000000008000557c                register_exception_handler
 .text          0x0000000080005628      0x110 C:/Users/spenc/Dropbox/N64_DEV_STUFF/n64dev/mips64-elf/lib\libm.a(lib_a-sf_cos.o)
                0x0000000080005628                cosf
 .text          0x0000000080005738      0x110 C:/Users/spenc/Dropbox/N64_DEV_STUFF/n64dev/mips64-elf/lib\libm.a(lib_a-sf_sin.o)
                0x0000000080005738                sinf
 .text          0x0000000080005848      0x398 C:/Users/spenc/Dropbox/N64_DEV_STUFF/n64dev/mips64-elf/lib\libm.a(lib_a-ef_rem_pio2.o)
                0x0000000080005848                __ieee754_rem_pio2f
 .text          0x0000000080005be0      0x1a8 C:/Users/spenc/Dropbox/N64_DEV_STUFF/n64dev/mips64-elf/lib\libm.a(lib_a-kf_cos.o)
                0x0000000080005be0                __kernel_cosf
 .text          0x0000000080005d88      0x8f8 C:/Users/spenc/Dropbox/N64_DEV_STUFF/n64dev/mips64-elf/lib\libm.a(lib_a-kf_rem_pio2.o)
                0x0000000080005d88                __kernel_rem_pio2f
 .text          0x0000000080006680      0x110 C:/Users/spenc/Dropbox/N64_DEV_STUFF/n64dev/mips64-elf/lib\libm.a(lib_a-kf_sin.o)
                0x0000000080006680                __kernel_sinf
 .text          0x0000000080006790       0x20 C:/Users/spenc/Dropbox/N64_DEV_STUFF/n64dev/mips64-elf/lib\libm.a(lib_a-sf_fabs.o)
                0x0000000080006790                fabsf
 .text          0x00000000800067b0      0x108 C:/Users/spenc/Dropbox/N64_DEV_STUFF/n64dev/mips64-elf/lib\libm.a(lib_a-sf_floor.o)
                0x00000000800067b0                floorf
 .text          0x00000000800068b8      0x180 C:/Users/spenc/Dropbox/N64_DEV_STUFF/n64dev/mips64-elf/lib\libm.a(lib_a-sf_scalbn.o)
                0x00000000800068b8                scalbnf
 .text          0x0000000080006a38       0x30 C:/Users/spenc/Dropbox/N64_DEV_STUFF/n64dev/mips64-elf/lib\libm.a(lib_a-sf_copysign.o)
                0x0000000080006a38                copysignf
 .text          0x0000000080006a68       0x20 C:/Users/spenc/Dropbox/N64_DEV_STUFF/n64dev/mips64-elf/lib\libc.a(lib_a-malloc.o)
                0x0000000080006a78                malloc
                0x0000000080006a68                free
 .text          0x0000000080006a88      0x890 C:/Users/spenc/Dropbox/N64_DEV_STUFF/n64dev/mips64-elf/lib\libc.a(lib_a-mallocr.o)
                0x0000000080006a88                _malloc_r
 .text          0x0000000080007318      0x160 C:/Users/spenc/Dropbox/N64_DEV_STUFF/n64dev/mips64-elf/lib\libc.a(lib_a-memcpy.o)
                0x0000000080007318                memcpy
 .text          0x0000000080007478       0xf0 C:/Users/spenc/Dropbox/N64_DEV_STUFF/n64dev/mips64-elf/lib\libc.a(lib_a-memset.o)
                0x0000000080007478                memset
 .text          0x0000000080007568       0x10 C:/Users/spenc/Dropbox/N64_DEV_STUFF/n64dev/mips64-elf/lib\libc.a(lib_a-mlock.o)
                0x0000000080007570                __malloc_unlock
                0x0000000080007568                __malloc_lock
 .text          0x0000000080007578       0x68 C:/Users/spenc/Dropbox/N64_DEV_STUFF/n64dev/mips64-elf/lib\libc.a(lib_a-sbrkr.o)
                0x0000000080007578                _sbrk_r
 .text          0x00000000800075e0       0xd0 C:/Users/spenc/Dropbox/N64_DEV_STUFF/n64dev/mips64-elf/lib\libc.a(lib_a-sprintf.o)
                0x0000000080007650                _sprintf_r
                0x00000000800075e0                sprintf
 .text          0x00000000800076b0       0x78 C:/Users/spenc/Dropbox/N64_DEV_STUFF/n64dev/mips64-elf/lib\libc.a(lib_a-strcmp.o)
                0x00000000800076b0                strcmp
 .text          0x0000000080007728       0xb8 C:/Users/spenc/Dropbox/N64_DEV_STUFF/n64dev/mips64-elf/lib\libc.a(lib_a-strcpy.o)
                0x0000000080007728                strcpy
 .text          0x00000000800077e0       0x18 C:/Users/spenc/Dropbox/N64_DEV_STUFF/n64dev/mips64-elf/lib\libc.a(lib_a-strlen.o)
                0x00000000800077e0                strlen
 .text          0x00000000800077f8     0x1fa0 C:/Users/spenc/Dropbox/N64_DEV_STUFF/n64dev/mips64-elf/lib\libc.a(lib_a-svfprintf.o)
                0x0000000080007a78                _svfprintf_r
 .text          0x0000000080009798     0x1528 C:/Users/spenc/Dropbox/N64_DEV_STUFF/n64dev/mips64-elf/lib\libc.a(lib_a-dtoa.o)
                0x00000000800099c8                _dtoa_r
 .text          0x000000008000acc0      0x420 C:/Users/spenc/Dropbox/N64_DEV_STUFF/n64dev/mips64-elf/lib\libc.a(lib_a-freer.o)
                0x000000008000adf8                _free_r
                0x000000008000acc0                _malloc_trim_r
 .text          0x000000008000b0e0        0x0 C:/Users/spenc/Dropbox/N64_DEV_STUFF/n64dev/mips64-elf/lib\libc.a(lib_a-impure.o)
 .text          0x000000008000b0e0      0x100 C:/Users/spenc/Dropbox/N64_DEV_STUFF/n64dev/mips64-elf/lib\libc.a(lib_a-locale.o)
                0x000000008000b110                _setlocale_r
                0x000000008000b0e0                __locale_charset
                0x000000008000b0f0                _localeconv_r
                0x000000008000b1c8                setlocale
                0x000000008000b100                localeconv
 .text          0x000000008000b1e0       0xc0 C:/Users/spenc/Dropbox/N64_DEV_STUFF/n64dev/mips64-elf/lib\libc.a(lib_a-memchr.o)
                0x000000008000b1e0                memchr
 .text          0x000000008000b2a0      0x150 C:/Users/spenc/Dropbox/N64_DEV_STUFF/n64dev/mips64-elf/lib\libc.a(lib_a-memmove.o)
                0x000000008000b2a0                memmove
 .text          0x000000008000b3f0     0x1220 C:/Users/spenc/Dropbox/N64_DEV_STUFF/n64dev/mips64-elf/lib\libc.a(lib_a-mprec.o)
                0x000000008000b8c8                _mprec_log10
                0x000000008000b9a8                __any_on
                0x000000008000ba58                _Balloc
                0x000000008000b7e8                __ratio
                0x000000008000c220                __i2b
                0x000000008000b660                __b2d
                0x000000008000c4b8                __s2b
                0x000000008000b560                __mcmp
                0x000000008000b420                __hi0bits
                0x000000008000c380                __pow5mult
                0x000000008000be70                __lshift
                0x000000008000bfe0                __multiply
                0x000000008000bb08                __d2b
                0x000000008000b910                __copybits
                0x000000008000b5c8                __ulp
                0x000000008000bc88                __mdiff
                0x000000008000b4a0                __lo0bits
                0x000000008000c258                __multadd
                0x000000008000b3f0                _Bfree
 .text          0x000000008000c610      0x5f8 C:/Users/spenc/Dropbox/N64_DEV_STUFF/n64dev/mips64-elf/lib\libc.a(lib_a-reallocr.o)
                0x000000008000c610                _realloc_r
 .text          0x000000008000cc08      0x230 C:/Users/spenc/Dropbox/N64_DEV_STUFF/n64dev/mips64-elf/lib\libc.a(lib_a-reent.o)
                0x000000008000ccc0                cleanup_glue
                0x000000008000cd08                _reclaim_reent
                0x000000008000cc08                _wrapup_reent
 .text          0x000000008000ce38       0x48 C:/Users/spenc/Dropbox/N64_DEV_STUFF/n64dev/mips64-elf/lib\libc.a(lib_a-s_isinfd.o)
                0x000000008000ce38                __isinfd
 .text          0x000000008000ce80       0x40 C:/Users/spenc/Dropbox/N64_DEV_STUFF/n64dev/mips64-elf/lib\libc.a(lib_a-s_isnand.o)
                0x000000008000ce80                __isnand
 .text          0x000000008000cec0       0xc0 C:/Users/spenc/Dropbox/N64_DEV_STUFF/n64dev/mips64-elf/lib\libc.a(lib_a-callocr.o)
                0x000000008000cec0                _calloc_r
 .text          0x000000008000cf80      0xeb0 C:/Users/spenc/Dropbox/N64_DEV_STUFF/n64dev/lib\libdragonsys.a(system.o)
                0x000000008000dafc                times
                0x000000008000d468                detach_filesystem
                0x000000008000d568                execve
                0x000000008000d634                getpid
                0x000000008000d99c                readlink
                0x000000008000d65c                isatty
                0x000000008000d6a8                lseek
                0x000000008000d3dc                chown
                0x000000008000dbb8                write
                0x000000008000d598                fstat
                0x000000008000d680                kill
                0x000000008000dba4                wait
                0x000000008000d8ac                read
                0x000000008000db10                unlink
                0x000000008000d220                attach_filesystem
                0x000000008000d584                fork
                0x000000008000d9b0                sbrk
                0x000000008000dae8                symlink
                0x000000008000d648                gettimeofday
                0x000000008000dce0                dir_findfirst
                0x000000008000da7c                stat
                0x000000008000de14                unhook_stdio_calls
                0x000000008000dddc                hook_stdio_calls
                0x000000008000d694                link
                0x000000008000d57c                exit
                0x000000008000dd7c                dir_findnext
                0x000000008000d73c                open
                0x000000008000d3f0                close
 *(.text.*)
 *(.gnu.linkonce.t.*)
 .gnu.linkonce.t._ZN8Instance8OnCreateEv
                0x000000008000de30       0x38 main.o
                0x000000008000de30                Instance::OnCreate()
 .gnu.linkonce.t._ZN8Instance11KeyBPressedEv
                0x000000008000de68        0x8 main.o
                0x000000008000de68                Instance::KeyBPressed()
 .gnu.linkonce.t._ZN8Instance11KeyAPressedEv
                0x000000008000de70       0x50 main.o
                0x000000008000de70                Instance::KeyAPressed()
 .gnu.linkonce.t._ZN6LibN6414DrawTextFormatIffEEviiPcT_T0_
                0x000000008000dec0       0xb0 main.o
                0x000000008000dec0                void LibN64::DrawTextFormat<float, float>(int, int, char*, float, float)
 .gnu.linkonce.t._ZN8Instance11FrameUpdateEv
                0x000000008000df70       0xc8 main.o
                0x000000008000df70                Instance::FrameUpdate()
                0x000000008000e040                . = ALIGN (0x10)
 *fill*         0x000000008000e038        0x8 00
                0x000000008000e040                __INIT_SECTION__ = .
 *(.init)
                0x000000008000e040        0x4 LONG 0x3e00008
                0x000000008000e044        0x4 LONG 0x0
                0x000000008000e050                . = ALIGN (0x10)
 *fill*         0x000000008000e048        0x8 00
                0x000000008000e050                __FINI_SECTION__ = .
 *(.fini)
                0x000000008000e050        0x4 LONG 0x3e00008
                0x000000008000e054        0x4 LONG 0x0

.eh_frame_hdr
 *(.eh_frame_hdr)

.eh_frame       0x000000008000e058      0x6a4 load address 0x000000000000dc58
 *(.eh_frame)
 .eh_frame      0x000000008000e058       0x2c C:/Users/spenc/Dropbox/N64_DEV_STUFF/n64dev/mips64-elf/lib\libm.a(lib_a-sf_cos.o)
 .eh_frame      0x000000008000e084       0x18 C:/Users/spenc/Dropbox/N64_DEV_STUFF/n64dev/mips64-elf/lib\libm.a(lib_a-sf_sin.o)
                                         0x2c (size before relaxing)
 .eh_frame      0x000000008000e09c       0x20 C:/Users/spenc/Dropbox/N64_DEV_STUFF/n64dev/mips64-elf/lib\libm.a(lib_a-ef_rem_pio2.o)
                                         0x34 (size before relaxing)
 .eh_frame      0x000000008000e0bc       0x14 C:/Users/spenc/Dropbox/N64_DEV_STUFF/n64dev/mips64-elf/lib\libm.a(lib_a-kf_cos.o)
                                         0x28 (size before relaxing)
 .eh_frame      0x000000008000e0d0       0x40 C:/Users/spenc/Dropbox/N64_DEV_STUFF/n64dev/mips64-elf/lib\libm.a(lib_a-kf_rem_pio2.o)
                                         0x54 (size before relaxing)
 .eh_frame      0x000000008000e110       0x14 C:/Users/spenc/Dropbox/N64_DEV_STUFF/n64dev/mips64-elf/lib\libm.a(lib_a-kf_sin.o)
                                         0x28 (size before relaxing)
 .eh_frame      0x000000008000e124       0x14 C:/Users/spenc/Dropbox/N64_DEV_STUFF/n64dev/mips64-elf/lib\libm.a(lib_a-sf_fabs.o)
                                         0x28 (size before relaxing)
 .eh_frame      0x000000008000e138       0x14 C:/Users/spenc/Dropbox/N64_DEV_STUFF/n64dev/mips64-elf/lib\libm.a(lib_a-sf_floor.o)
                                         0x28 (size before relaxing)
 .eh_frame      0x000000008000e14c       0x1c C:/Users/spenc/Dropbox/N64_DEV_STUFF/n64dev/mips64-elf/lib\libm.a(lib_a-sf_scalbn.o)
                                         0x30 (size before relaxing)
 .eh_frame      0x000000008000e168       0x14 C:/Users/spenc/Dropbox/N64_DEV_STUFF/n64dev/mips64-elf/lib\libm.a(lib_a-sf_copysign.o)
                                         0x28 (size before relaxing)
 .eh_frame      0x000000008000e17c       0x28 C:/Users/spenc/Dropbox/N64_DEV_STUFF/n64dev/mips64-elf/lib\libc.a(lib_a-malloc.o)
                                         0x3c (size before relaxing)
 .eh_frame      0x000000008000e1a4       0x2c C:/Users/spenc/Dropbox/N64_DEV_STUFF/n64dev/mips64-elf/lib\libc.a(lib_a-mallocr.o)
                                         0x40 (size before relaxing)
 .eh_frame      0x000000008000e1d0       0x14 C:/Users/spenc/Dropbox/N64_DEV_STUFF/n64dev/mips64-elf/lib\libc.a(lib_a-memcpy.o)
                                         0x28 (size before relaxing)
 .eh_frame      0x000000008000e1e4       0x14 C:/Users/spenc/Dropbox/N64_DEV_STUFF/n64dev/mips64-elf/lib\libc.a(lib_a-memset.o)
                                         0x28 (size before relaxing)
 .eh_frame      0x000000008000e1f8       0x28 C:/Users/spenc/Dropbox/N64_DEV_STUFF/n64dev/mips64-elf/lib\libc.a(lib_a-mlock.o)
                                         0x3c (size before relaxing)
 .eh_frame      0x000000008000e220       0x1c C:/Users/spenc/Dropbox/N64_DEV_STUFF/n64dev/mips64-elf/lib\libc.a(lib_a-sbrkr.o)
                                         0x30 (size before relaxing)
 .eh_frame      0x000000008000e23c       0x38 C:/Users/spenc/Dropbox/N64_DEV_STUFF/n64dev/mips64-elf/lib\libc.a(lib_a-sprintf.o)
                                         0x4c (size before relaxing)
 .eh_frame      0x000000008000e274       0x14 C:/Users/spenc/Dropbox/N64_DEV_STUFF/n64dev/mips64-elf/lib\libc.a(lib_a-strcmp.o)
                                         0x28 (size before relaxing)
 .eh_frame      0x000000008000e288       0x14 C:/Users/spenc/Dropbox/N64_DEV_STUFF/n64dev/mips64-elf/lib\libc.a(lib_a-strcpy.o)
                                         0x28 (size before relaxing)
 .eh_frame      0x000000008000e29c       0x5c C:/Users/spenc/Dropbox/N64_DEV_STUFF/n64dev/mips64-elf/lib\libc.a(lib_a-svfprintf.o)
                                         0x70 (size before relaxing)
 .eh_frame      0x000000008000e2f8       0x54 C:/Users/spenc/Dropbox/N64_DEV_STUFF/n64dev/mips64-elf/lib\libc.a(lib_a-dtoa.o)
                                         0x68 (size before relaxing)
 .eh_frame      0x000000008000e34c       0x3c C:/Users/spenc/Dropbox/N64_DEV_STUFF/n64dev/mips64-elf/lib\libc.a(lib_a-freer.o)
                                         0x50 (size before relaxing)
 .eh_frame      0x000000008000e388       0x70 C:/Users/spenc/Dropbox/N64_DEV_STUFF/n64dev/mips64-elf/lib\libc.a(lib_a-locale.o)
                                         0x84 (size before relaxing)
 .eh_frame      0x000000008000e3f8       0x14 C:/Users/spenc/Dropbox/N64_DEV_STUFF/n64dev/mips64-elf/lib\libc.a(lib_a-memchr.o)
                                         0x28 (size before relaxing)
 .eh_frame      0x000000008000e40c       0x14 C:/Users/spenc/Dropbox/N64_DEV_STUFF/n64dev/mips64-elf/lib\libc.a(lib_a-memmove.o)
                                         0x28 (size before relaxing)
 .eh_frame      0x000000008000e420      0x210 C:/Users/spenc/Dropbox/N64_DEV_STUFF/n64dev/mips64-elf/lib\libc.a(lib_a-mprec.o)
                                        0x224 (size before relaxing)
 .eh_frame      0x000000008000e630       0x2c C:/Users/spenc/Dropbox/N64_DEV_STUFF/n64dev/mips64-elf/lib\libc.a(lib_a-reallocr.o)
                                         0x40 (size before relaxing)
 .eh_frame      0x000000008000e65c       0x5c C:/Users/spenc/Dropbox/N64_DEV_STUFF/n64dev/mips64-elf/lib\libc.a(lib_a-reent.o)
                                         0x70 (size before relaxing)
 .eh_frame      0x000000008000e6b8       0x14 C:/Users/spenc/Dropbox/N64_DEV_STUFF/n64dev/mips64-elf/lib\libc.a(lib_a-s_isinfd.o)
                                         0x28 (size before relaxing)
 .eh_frame      0x000000008000e6cc       0x14 C:/Users/spenc/Dropbox/N64_DEV_STUFF/n64dev/mips64-elf/lib\libc.a(lib_a-s_isnand.o)
                                         0x28 (size before relaxing)
 .eh_frame      0x000000008000e6e0       0x1c C:/Users/spenc/Dropbox/N64_DEV_STUFF/n64dev/mips64-elf/lib\libc.a(lib_a-callocr.o)
                                         0x30 (size before relaxing)

.gcc_except_table
 *(.gcc_except_table)

.jcr
 *(.jcr)

.ctors          0x000000008000e6fc        0xc load address 0x000000000000e2fc
                0x000000008000e700                . = ALIGN (0x10)
 *fill*         0x000000008000e6fc        0x4 00
                0x000000008000e700                __CTOR_LIST__ = .
                0x000000008000e700                ___CTOR_LIST__ = .
                0x000000008000e700        0x4 LONG 0x0 (((__CTOR_END__ - __CTOR_LIST__) / 0x4) - 0x2)
 *(SORT(.ctors.*))
 *(.ctors)
                0x000000008000e704        0x4 LONG 0x0
                0x000000008000e708                __CTOR_END__ = .

.dtors          0x000000008000e708       0x10 load address 0x000000000000e308
                0x000000008000e710                . = ALIGN (0x10)
 *fill*         0x000000008000e708        0x8 00
                0x000000008000e710                __DTOR_LIST__ = .
                0x000000008000e710                ___DTOR_LIST__ = .
                0x000000008000e710        0x4 LONG 0x0 (((__DTOR_END__ - __DTOR_LIST__) / 0x4) - 0x2)
 *(SORT(.dtors.*))
 *(.dtors)
                0x000000008000e714        0x4 LONG 0x0
                0x000000008000e718                __DTOR_END__ = .
                0x000000008000e718                . = .

.rodata         0x000000008000e718     0x1150 load address 0x000000000000e318
 *(.rdata)
 *(.rodata)
 .rodata        0x000000008000e718       0x20 C:/Users/spenc/Dropbox/N64_DEV_STUFF/n64dev/lib\libdragon.a(controller.o)
 .rodata        0x000000008000e738      0x800 C:/Users/spenc/Dropbox/N64_DEV_STUFF/n64dev/lib\libdragon.a(graphics.o)
 .rodata        0x000000008000ef38      0x398 C:/Users/spenc/Dropbox/N64_DEV_STUFF/n64dev/mips64-elf/lib\libm.a(lib_a-ef_rem_pio2.o)
 .rodata        0x000000008000f2d0       0x40 C:/Users/spenc/Dropbox/N64_DEV_STUFF/n64dev/mips64-elf/lib\libm.a(lib_a-kf_rem_pio2.o)
 .rodata        0x000000008000f310      0x188 C:/Users/spenc/Dropbox/N64_DEV_STUFF/n64dev/mips64-elf/lib\libc.a(lib_a-svfprintf.o)
 .rodata        0x000000008000f498       0x38 C:/Users/spenc/Dropbox/N64_DEV_STUFF/n64dev/mips64-elf/lib\libc.a(lib_a-locale.o)
 .rodata        0x000000008000f4d0      0x128 C:/Users/spenc/Dropbox/N64_DEV_STUFF/n64dev/mips64-elf/lib\libc.a(lib_a-mprec.o)
                0x000000008000f5c0                __mprec_tinytens
                0x000000008000f4d0                __mprec_tens
                0x000000008000f598                __mprec_bigtens
 *(.rodata.*)
 .rodata.cst4   0x000000008000f5f8        0x4 LibN64.o
 *fill*         0x000000008000f5fc        0x4 00
 .rodata.str1.8
                0x000000008000f600       0x64 main.o
                                         0x68 (size before relaxing)
 .rodata.cst4   0x000000008000f664        0x4 main.o
 .rodata.cst8   0x000000008000f668       0x10 main.o
 .rodata.str1.8
                0x000000008000f678       0x1e C:/Users/spenc/Dropbox/N64_DEV_STUFF/n64dev/lib\libdragon.a(dragonfs.o)
                                         0x20 (size before relaxing)
 *fill*         0x000000008000f696        0x2 00
 .rodata.str1.8
                0x000000008000f698       0x22 C:/Users/spenc/Dropbox/N64_DEV_STUFF/n64dev/lib\libdragon.a(exception.o)
                                         0x28 (size before relaxing)
 *fill*         0x000000008000f6ba        0x2 00
 .rodata.cst4   0x000000008000f6bc       0x28 C:/Users/spenc/Dropbox/N64_DEV_STUFF/n64dev/mips64-elf/lib\libm.a(lib_a-ef_rem_pio2.o)
 .rodata.cst4   0x000000008000f6e4       0x20 C:/Users/spenc/Dropbox/N64_DEV_STUFF/n64dev/mips64-elf/lib\libm.a(lib_a-kf_cos.o)
                                         0x24 (size before relaxing)
 .rodata.cst4   0x000000008000f704       0x10 C:/Users/spenc/Dropbox/N64_DEV_STUFF/n64dev/mips64-elf/lib\libm.a(lib_a-kf_rem_pio2.o)
                                         0x1c (size before relaxing)
 .rodata.cst4   0x000000008000f714       0x18 C:/Users/spenc/Dropbox/N64_DEV_STUFF/n64dev/mips64-elf/lib\libm.a(lib_a-kf_sin.o)
                                         0x1c (size before relaxing)
 .rodata.cst4   0x000000008000f72c        0x4 C:/Users/spenc/Dropbox/N64_DEV_STUFF/n64dev/mips64-elf/lib\libm.a(lib_a-sf_floor.o)
 .rodata.cst4   0x000000008000f730        0xc C:/Users/spenc/Dropbox/N64_DEV_STUFF/n64dev/mips64-elf/lib\libm.a(lib_a-sf_scalbn.o)
                                         0x10 (size before relaxing)
 *fill*         0x000000008000f73c        0x4 00
 .rodata.str1.8
                0x000000008000f740       0x5a C:/Users/spenc/Dropbox/N64_DEV_STUFF/n64dev/mips64-elf/lib\libc.a(lib_a-svfprintf.o)
                                         0x60 (size before relaxing)
 *fill*         0x000000008000f79a        0x6 00
 .rodata.str1.8
                0x000000008000f7a0       0x11 C:/Users/spenc/Dropbox/N64_DEV_STUFF/n64dev/mips64-elf/lib\libc.a(lib_a-dtoa.o)
                                         0x20 (size before relaxing)
 *fill*         0x000000008000f7b1        0x7 00
 .rodata.cst8   0x000000008000f7b8       0x48 C:/Users/spenc/Dropbox/N64_DEV_STUFF/n64dev/mips64-elf/lib\libc.a(lib_a-dtoa.o)
 .rodata.str1.8
                0x000000008000f800        0x2 C:/Users/spenc/Dropbox/N64_DEV_STUFF/n64dev/mips64-elf/lib\libc.a(lib_a-impure.o)
                                          0x8 (size before relaxing)
 *fill*         0x000000008000f802        0x6 00
 .rodata.str1.8
                0x000000008000f808       0x10 C:/Users/spenc/Dropbox/N64_DEV_STUFF/n64dev/mips64-elf/lib\libc.a(lib_a-locale.o)
                                         0x28 (size before relaxing)
 .rodata.cst8   0x0000000000000000       0x10 C:/Users/spenc/Dropbox/N64_DEV_STUFF/n64dev/mips64-elf/lib\libc.a(lib_a-mprec.o)
 *(.gnu.linkonce.r.*)
 .gnu.linkonce.r._ZTV6LibN64
                0x000000008000f818       0x28 LibN64.o
                0x000000008000f818                vtable for LibN64
 .gnu.linkonce.r._ZTV8Instance
                0x000000008000f840       0x28 main.o
                0x000000008000f840                vtable for Instance

.rel.dyn        0x000000008000e718        0x0
 .rel.dyn       0x0000000000000000        0x0 C:/Users/spenc/Dropbox/N64_DEV_STUFF/n64dev/lib\libdragon.a(inthandler.o)
                0x000000008000e720                . = ALIGN (0x10)
                0x000000008000e720                __text_end = .

.data           0x000000008000f868      0xa28 load address 0x000000000000f468
                0x000000008000f868                __data_start = .
 *(.data)
 .data          0x000000008000f868        0x0 LibN64.o
 .data          0x000000008000f868        0x0 main.o
 .data          0x000000008000f868        0x4 C:/Users/spenc/Dropbox/N64_DEV_STUFF/n64dev/lib\libdragon.a(interrupt.o)
 .data          0x000000008000f86c        0x0 C:/Users/spenc/Dropbox/N64_DEV_STUFF/n64dev/lib\libdragon.a(entrypoint.o)
 *fill*         0x000000008000f86c        0x4 00
 .data          0x000000008000f870       0x30 C:/Users/spenc/Dropbox/N64_DEV_STUFF/n64dev/lib\libdragon.a(dragonfs.o)
 .data          0x000000008000f8a0       0x10 C:/Users/spenc/Dropbox/N64_DEV_STUFF/n64dev/lib\libdragon.a(display.o)
                0x000000008000f8ac                __buffers
 .data          0x000000008000f8b0      0x180 C:/Users/spenc/Dropbox/N64_DEV_STUFF/n64dev/lib\libdragon.a(controller.o)
 .data          0x000000008000fa30        0x4 C:/Users/spenc/Dropbox/N64_DEV_STUFF/n64dev/lib\libdragon.a(graphics.o)
 .data          0x000000008000fa34        0x0 C:/Users/spenc/Dropbox/N64_DEV_STUFF/n64dev/lib\libdragon.a(dma.o)
 .data          0x000000008000fa34        0x0 C:/Users/spenc/Dropbox/N64_DEV_STUFF/n64dev/lib\libdragon.a(timer.o)
 .data          0x000000008000fa34        0x4 C:/Users/spenc/Dropbox/N64_DEV_STUFF/n64dev/lib\libdragon.a(n64sys.o)
                0x000000008000fa34                __bootcic
 .data          0x000000008000fa38        0x0 C:/Users/spenc/Dropbox/N64_DEV_STUFF/n64dev/lib\libdragon.a(inthandler.o)
 .data          0x000000008000fa38        0x0 C:/Users/spenc/Dropbox/N64_DEV_STUFF/n64dev/lib\libdragon.a(exception.o)
 .data          0x000000008000fa38        0x0 C:/Users/spenc/Dropbox/N64_DEV_STUFF/n64dev/mips64-elf/lib\libm.a(lib_a-sf_cos.o)
 .data          0x000000008000fa38        0x0 C:/Users/spenc/Dropbox/N64_DEV_STUFF/n64dev/mips64-elf/lib\libm.a(lib_a-sf_sin.o)
 .data          0x000000008000fa38        0x0 C:/Users/spenc/Dropbox/N64_DEV_STUFF/n64dev/mips64-elf/lib\libm.a(lib_a-ef_rem_pio2.o)
 .data          0x000000008000fa38        0x0 C:/Users/spenc/Dropbox/N64_DEV_STUFF/n64dev/mips64-elf/lib\libm.a(lib_a-kf_cos.o)
 .data          0x000000008000fa38        0x0 C:/Users/spenc/Dropbox/N64_DEV_STUFF/n64dev/mips64-elf/lib\libm.a(lib_a-kf_rem_pio2.o)
 .data          0x000000008000fa38        0x0 C:/Users/spenc/Dropbox/N64_DEV_STUFF/n64dev/mips64-elf/lib\libm.a(lib_a-kf_sin.o)
 .data          0x000000008000fa38        0x0 C:/Users/spenc/Dropbox/N64_DEV_STUFF/n64dev/mips64-elf/lib\libm.a(lib_a-sf_fabs.o)
 .data          0x000000008000fa38        0x0 C:/Users/spenc/Dropbox/N64_DEV_STUFF/n64dev/mips64-elf/lib\libm.a(lib_a-sf_floor.o)
 .data          0x000000008000fa38        0x0 C:/Users/spenc/Dropbox/N64_DEV_STUFF/n64dev/mips64-elf/lib\libm.a(lib_a-sf_scalbn.o)
 .data          0x000000008000fa38        0x0 C:/Users/spenc/Dropbox/N64_DEV_STUFF/n64dev/mips64-elf/lib\libm.a(lib_a-sf_copysign.o)
 .data          0x000000008000fa38        0x0 C:/Users/spenc/Dropbox/N64_DEV_STUFF/n64dev/mips64-elf/lib\libc.a(lib_a-malloc.o)
 .data          0x000000008000fa38      0x410 C:/Users/spenc/Dropbox/N64_DEV_STUFF/n64dev/mips64-elf/lib\libc.a(lib_a-mallocr.o)
                0x000000008000fe44                __malloc_sbrk_base
                0x000000008000fa38                __malloc_av_
                0x000000008000fe40                __malloc_trim_threshold
 .data          0x000000008000fe48        0x0 C:/Users/spenc/Dropbox/N64_DEV_STUFF/n64dev/mips64-elf/lib\libc.a(lib_a-memcpy.o)
 .data          0x000000008000fe48        0x0 C:/Users/spenc/Dropbox/N64_DEV_STUFF/n64dev/mips64-elf/lib\libc.a(lib_a-memset.o)
 .data          0x000000008000fe48        0x0 C:/Users/spenc/Dropbox/N64_DEV_STUFF/n64dev/mips64-elf/lib\libc.a(lib_a-mlock.o)
 .data          0x000000008000fe48        0x0 C:/Users/spenc/Dropbox/N64_DEV_STUFF/n64dev/mips64-elf/lib\libc.a(lib_a-sbrkr.o)
 .data          0x000000008000fe48        0x0 C:/Users/spenc/Dropbox/N64_DEV_STUFF/n64dev/mips64-elf/lib\libc.a(lib_a-sprintf.o)
 .data          0x000000008000fe48        0x0 C:/Users/spenc/Dropbox/N64_DEV_STUFF/n64dev/mips64-elf/lib\libc.a(lib_a-strcmp.o)
 .data          0x000000008000fe48        0x0 C:/Users/spenc/Dropbox/N64_DEV_STUFF/n64dev/mips64-elf/lib\libc.a(lib_a-strcpy.o)
 .data          0x000000008000fe48        0x0 C:/Users/spenc/Dropbox/N64_DEV_STUFF/n64dev/mips64-elf/lib\libc.a(lib_a-strlen.o)
 .data          0x000000008000fe48        0x0 C:/Users/spenc/Dropbox/N64_DEV_STUFF/n64dev/mips64-elf/lib\libc.a(lib_a-svfprintf.o)
 .data          0x000000008000fe48        0x0 C:/Users/spenc/Dropbox/N64_DEV_STUFF/n64dev/mips64-elf/lib\libc.a(lib_a-dtoa.o)
 .data          0x000000008000fe48        0x0 C:/Users/spenc/Dropbox/N64_DEV_STUFF/n64dev/mips64-elf/lib\libc.a(lib_a-freer.o)
 .data          0x000000008000fe48      0x428 C:/Users/spenc/Dropbox/N64_DEV_STUFF/n64dev/mips64-elf/lib\libc.a(lib_a-impure.o)
 .data          0x0000000080010270       0x18 C:/Users/spenc/Dropbox/N64_DEV_STUFF/n64dev/mips64-elf/lib\libc.a(lib_a-locale.o)
                0x0000000080010270                __mb_cur_max
                0x0000000080010278                __lc_ctype
 .data          0x0000000080010288        0x0 C:/Users/spenc/Dropbox/N64_DEV_STUFF/n64dev/mips64-elf/lib\libc.a(lib_a-memchr.o)
 .data          0x0000000080010288        0x0 C:/Users/spenc/Dropbox/N64_DEV_STUFF/n64dev/mips64-elf/lib\libc.a(lib_a-memmove.o)
 .data          0x0000000080010288        0x0 C:/Users/spenc/Dropbox/N64_DEV_STUFF/n64dev/mips64-elf/lib\libc.a(lib_a-mprec.o)
 .data          0x0000000080010288        0x0 C:/Users/spenc/Dropbox/N64_DEV_STUFF/n64dev/mips64-elf/lib\libc.a(lib_a-reallocr.o)
 .data          0x0000000080010288        0x0 C:/Users/spenc/Dropbox/N64_DEV_STUFF/n64dev/mips64-elf/lib\libc.a(lib_a-reent.o)
 .data          0x0000000080010288        0x0 C:/Users/spenc/Dropbox/N64_DEV_STUFF/n64dev/mips64-elf/lib\libc.a(lib_a-s_isinfd.o)
 .data          0x0000000080010288        0x0 C:/Users/spenc/Dropbox/N64_DEV_STUFF/n64dev/mips64-elf/lib\libc.a(lib_a-s_isnand.o)
 .data          0x0000000080010288        0x0 C:/Users/spenc/Dropbox/N64_DEV_STUFF/n64dev/mips64-elf/lib\libc.a(lib_a-callocr.o)
 .data          0x0000000080010288        0x8 C:/Users/spenc/Dropbox/N64_DEV_STUFF/n64dev/lib\libdragonsys.a(system.o)
                0x000000008001028c                environ
 *(.data.*)
 *(.gnu.linkonce.d.*)
                0x0000000080010290                . = ALIGN (0x8)
                0x0000000080018290                _gp = (. + 0x8000)
                0x0000000080018290                __global = _gp

.lit8
 *(.lit8)

.lit4
 *(.lit4)

.sdata          0x0000000080010290        0x8 load address 0x000000000000fe90
 *(.sdata)
 .sdata         0x0000000080010290        0x8 C:/Users/spenc/Dropbox/N64_DEV_STUFF/n64dev/mips64-elf/lib\libc.a(lib_a-impure.o)
                0x0000000080010294                _global_impure_ptr
                0x0000000080010290                _impure_ptr
 *(.sdata.*)
 *(.gnu.linkonce.s.*)
                0x0000000080010298                . = ALIGN (0x8)
                0x0000000080010298                __data_end = .

.sbss           0x0000000080010298      0x228 load address 0x000000000000fe98
                0x0000000080010298                __bss_start = .
 *(.sbss)
 .sbss          0x0000000080010298      0x218 C:/Users/spenc/Dropbox/N64_DEV_STUFF/n64dev/lib\libdragon.a(inthandler.o)
 *(.sbss.*)
 *(.gnu.linkonce.sb.*)
 *(.scommon)
 .scommon       0x00000000800104b0        0xc C:/Users/spenc/Dropbox/N64_DEV_STUFF/n64dev/lib\libdragon.a(display.o)
                0x00000000800104b0                __width
                0x00000000800104b4                __bitdepth
                0x00000000800104b8                __height
 .scommon       0x00000000800104bc        0x4 C:/Users/spenc/Dropbox/N64_DEV_STUFF/n64dev/mips64-elf/lib\libc.a(lib_a-reent.o)
                0x00000000800104bc                errno
 .scommon       0x00000000800104c0        0x0 C:/Users/spenc/Dropbox/N64_DEV_STUFF/n64dev/lib\libdragonsys.a(system.o)

.bss            0x0000000080010500    0x116ec load address 0x0000000000010100
 *(.bss)
 .bss           0x0000000080010500        0x0 LibN64.o
 .bss           0x0000000080010500        0x0 main.o
 .bss           0x0000000080010500       0x1c C:/Users/spenc/Dropbox/N64_DEV_STUFF/n64dev/lib\libdragon.a(interrupt.o)
                0x0000000080010510                PI_callback
                0x0000000080010508                TI_callback
                0x0000000080010514                VI_callback
                0x0000000080010500                SP_callback
                0x0000000080010518                AI_callback
                0x0000000080010504                SI_callback
                0x000000008001050c                DP_callback
 .bss           0x000000008001051c        0x0 C:/Users/spenc/Dropbox/N64_DEV_STUFF/n64dev/lib\libdragon.a(entrypoint.o)
 *fill*         0x000000008001051c        0x4 00
 .bss           0x0000000080010520      0x9a0 C:/Users/spenc/Dropbox/N64_DEV_STUFF/n64dev/lib\libdragon.a(dragonfs.o)
 .bss           0x0000000080010ec0       0x10 C:/Users/spenc/Dropbox/N64_DEV_STUFF/n64dev/lib\libdragon.a(display.o)
 .bss           0x0000000080010ed0      0x200 C:/Users/spenc/Dropbox/N64_DEV_STUFF/n64dev/lib\libdragon.a(controller.o)
 .bss           0x00000000800110d0        0x4 C:/Users/spenc/Dropbox/N64_DEV_STUFF/n64dev/lib\libdragon.a(graphics.o)
 .bss           0x00000000800110d4        0x0 C:/Users/spenc/Dropbox/N64_DEV_STUFF/n64dev/lib\libdragon.a(dma.o)
 *fill*         0x00000000800110d4        0x4 00
 .bss           0x00000000800110d8       0x10 C:/Users/spenc/Dropbox/N64_DEV_STUFF/n64dev/lib\libdragon.a(timer.o)
 .bss           0x00000000800110e8        0x0 C:/Users/spenc/Dropbox/N64_DEV_STUFF/n64dev/lib\libdragon.a(n64sys.o)
 *fill*         0x00000000800110e8       0x18 00
 .bss           0x0000000080011100    0x10500 C:/Users/spenc/Dropbox/N64_DEV_STUFF/n64dev/lib\libdragon.a(inthandler.o)
                0x0000000080011200                __baseRegAddr
 .bss           0x0000000080021600        0x4 C:/Users/spenc/Dropbox/N64_DEV_STUFF/n64dev/lib\libdragon.a(exception.o)
 .bss           0x0000000080021604        0x0 C:/Users/spenc/Dropbox/N64_DEV_STUFF/n64dev/mips64-elf/lib\libm.a(lib_a-sf_cos.o)
 .bss           0x0000000080021604        0x0 C:/Users/spenc/Dropbox/N64_DEV_STUFF/n64dev/mips64-elf/lib\libm.a(lib_a-sf_sin.o)
 .bss           0x0000000080021604        0x0 C:/Users/spenc/Dropbox/N64_DEV_STUFF/n64dev/mips64-elf/lib\libm.a(lib_a-ef_rem_pio2.o)
 .bss           0x0000000080021604        0x0 C:/Users/spenc/Dropbox/N64_DEV_STUFF/n64dev/mips64-elf/lib\libm.a(lib_a-kf_cos.o)
 .bss           0x0000000080021604        0x0 C:/Users/spenc/Dropbox/N64_DEV_STUFF/n64dev/mips64-elf/lib\libm.a(lib_a-kf_rem_pio2.o)
 .bss           0x0000000080021604        0x0 C:/Users/spenc/Dropbox/N64_DEV_STUFF/n64dev/mips64-elf/lib\libm.a(lib_a-kf_sin.o)
 .bss           0x0000000080021604        0x0 C:/Users/spenc/Dropbox/N64_DEV_STUFF/n64dev/mips64-elf/lib\libm.a(lib_a-sf_fabs.o)
 .bss           0x0000000080021604        0x0 C:/Users/spenc/Dropbox/N64_DEV_STUFF/n64dev/mips64-elf/lib\libm.a(lib_a-sf_floor.o)
 .bss           0x0000000080021604        0x0 C:/Users/spenc/Dropbox/N64_DEV_STUFF/n64dev/mips64-elf/lib\libm.a(lib_a-sf_scalbn.o)
 .bss           0x0000000080021604        0x0 C:/Users/spenc/Dropbox/N64_DEV_STUFF/n64dev/mips64-elf/lib\libm.a(lib_a-sf_copysign.o)
 .bss           0x0000000080021604        0x0 C:/Users/spenc/Dropbox/N64_DEV_STUFF/n64dev/mips64-elf/lib\libc.a(lib_a-malloc.o)
 *fill*         0x0000000080021604        0x4 00
 .bss           0x0000000080021608       0x38 C:/Users/spenc/Dropbox/N64_DEV_STUFF/n64dev/mips64-elf/lib\libc.a(lib_a-mallocr.o)
                0x0000000080021608                __malloc_top_pad
                0x000000008002160c                __malloc_max_sbrked_mem
                0x0000000080021618                __malloc_current_mallinfo
                0x0000000080021610                __malloc_max_total_mem
 .bss           0x0000000080021640        0x0 C:/Users/spenc/Dropbox/N64_DEV_STUFF/n64dev/mips64-elf/lib\libc.a(lib_a-memcpy.o)
 .bss           0x0000000080021640        0x0 C:/Users/spenc/Dropbox/N64_DEV_STUFF/n64dev/mips64-elf/lib\libc.a(lib_a-memset.o)
 .bss           0x0000000080021640        0x0 C:/Users/spenc/Dropbox/N64_DEV_STUFF/n64dev/mips64-elf/lib\libc.a(lib_a-mlock.o)
 .bss           0x0000000080021640        0x0 C:/Users/spenc/Dropbox/N64_DEV_STUFF/n64dev/mips64-elf/lib\libc.a(lib_a-sbrkr.o)
 .bss           0x0000000080021640        0x0 C:/Users/spenc/Dropbox/N64_DEV_STUFF/n64dev/mips64-elf/lib\libc.a(lib_a-sprintf.o)
 .bss           0x0000000080021640        0x0 C:/Users/spenc/Dropbox/N64_DEV_STUFF/n64dev/mips64-elf/lib\libc.a(lib_a-strcmp.o)
 .bss           0x0000000080021640        0x0 C:/Users/spenc/Dropbox/N64_DEV_STUFF/n64dev/mips64-elf/lib\libc.a(lib_a-strcpy.o)
 .bss           0x0000000080021640        0x0 C:/Users/spenc/Dropbox/N64_DEV_STUFF/n64dev/mips64-elf/lib\libc.a(lib_a-strlen.o)
 .bss           0x0000000080021640        0x0 C:/Users/spenc/Dropbox/N64_DEV_STUFF/n64dev/mips64-elf/lib\libc.a(lib_a-svfprintf.o)
 .bss           0x0000000080021640        0x0 C:/Users/spenc/Dropbox/N64_DEV_STUFF/n64dev/mips64-elf/lib\libc.a(lib_a-dtoa.o)
 .bss           0x0000000080021640        0x0 C:/Users/spenc/Dropbox/N64_DEV_STUFF/n64dev/mips64-elf/lib\libc.a(lib_a-freer.o)
 .bss           0x0000000080021640        0x0 C:/Users/spenc/Dropbox/N64_DEV_STUFF/n64dev/mips64-elf/lib\libc.a(lib_a-impure.o)
 .bss           0x0000000080021640        0xc C:/Users/spenc/Dropbox/N64_DEV_STUFF/n64dev/mips64-elf/lib\libc.a(lib_a-locale.o)
                0x0000000080021640                __nlocale_changed
                0x0000000080021644                __mlocale_changed
                0x0000000080021648                _PathLocale
 .bss           0x000000008002164c        0x0 C:/Users/spenc/Dropbox/N64_DEV_STUFF/n64dev/mips64-elf/lib\libc.a(lib_a-memchr.o)
 .bss           0x000000008002164c        0x0 C:/Users/spenc/Dropbox/N64_DEV_STUFF/n64dev/mips64-elf/lib\libc.a(lib_a-memmove.o)
 .bss           0x000000008002164c        0x0 C:/Users/spenc/Dropbox/N64_DEV_STUFF/n64dev/mips64-elf/lib\libc.a(lib_a-mprec.o)
 .bss           0x000000008002164c        0x0 C:/Users/spenc/Dropbox/N64_DEV_STUFF/n64dev/mips64-elf/lib\libc.a(lib_a-reallocr.o)
 .bss           0x000000008002164c        0x0 C:/Users/spenc/Dropbox/N64_DEV_STUFF/n64dev/mips64-elf/lib\libc.a(lib_a-reent.o)
 .bss           0x000000008002164c        0x0 C:/Users/spenc/Dropbox/N64_DEV_STUFF/n64dev/mips64-elf/lib\libc.a(lib_a-s_isinfd.o)
 .bss           0x000000008002164c        0x0 C:/Users/spenc/Dropbox/N64_DEV_STUFF/n64dev/mips64-elf/lib\libc.a(lib_a-s_isnand.o)
 .bss           0x000000008002164c        0x0 C:/Users/spenc/Dropbox/N64_DEV_STUFF/n64dev/mips64-elf/lib\libc.a(lib_a-callocr.o)
 *fill*         0x000000008002164c        0x4 00
 .bss           0x0000000080021650      0x520 C:/Users/spenc/Dropbox/N64_DEV_STUFF/n64dev/lib\libdragonsys.a(system.o)
                0x0000000080021650                __env
 *(.bss.*)
 *(.gnu.linkonce.b.*)
 *(COMMON)
 COMMON         0x0000000080021b70       0x7c C:/Users/spenc/Dropbox/N64_DEV_STUFF/n64dev/lib\libdragon.a(display.o)
                0x0000000080021b70                __registers
                0x0000000080021be0                __safe_buffer
                0x0000000080021bec                end = .
                0x0000000080021bf0                _end = ALIGN (0x10)
                0x0000000080021bf0                __end = _end
                0x0000000080021bec                __bss_end = .
LOAD C:/Users/spenc/Dropbox/N64_DEV_STUFF/n64dev/lib\libdragon.a
LOAD C:/Users/spenc/Dropbox/N64_DEV_STUFF/n64dev/mips64-elf/lib\libm.a
LOAD C:/Users/spenc/Dropbox/N64_DEV_STUFF/n64dev/mips64-elf/lib\libstdc++.a
LOAD C:/Users/spenc/Dropbox/N64_DEV_STUFF/n64dev/mips64-elf/lib\libc.a
LOAD C:/Users/spenc/Dropbox/N64_DEV_STUFF/n64dev/lib/gcc/mips64-elf/4.4.0\libgcc.a
LOAD C:/Users/spenc/Dropbox/N64_DEV_STUFF/n64dev/lib\libdragonsys.a
OUTPUT(CPPLibDragonN64.elf elf32-bigmips)

.reginfo        0x0000000000000000       0x18
 .reginfo       0x0000000000000000       0x18 LibN64.o

.pdr            0x0000000000000000     0x1f00
 .pdr           0x0000000000000000      0x240 LibN64.o
 .pdr           0x0000000000000240       0xc0 main.o
 .pdr           0x0000000000000300      0x3a0 C:/Users/spenc/Dropbox/N64_DEV_STUFF/n64dev/lib\libdragon.a(interrupt.o)
 .pdr           0x00000000000006a0        0x0 C:/Users/spenc/Dropbox/N64_DEV_STUFF/n64dev/lib\libdragon.a(entrypoint.o)
 .pdr           0x00000000000006a0      0x2c0 C:/Users/spenc/Dropbox/N64_DEV_STUFF/n64dev/lib\libdragon.a(dragonfs.o)
 .pdr           0x0000000000000960       0xe0 C:/Users/spenc/Dropbox/N64_DEV_STUFF/n64dev/lib\libdragon.a(display.o)
 .pdr           0x0000000000000a40      0x320 C:/Users/spenc/Dropbox/N64_DEV_STUFF/n64dev/lib\libdragon.a(controller.o)
 .pdr           0x0000000000000d60      0x200 C:/Users/spenc/Dropbox/N64_DEV_STUFF/n64dev/lib\libdragon.a(graphics.o)
 .pdr           0x0000000000000f60       0xa0 C:/Users/spenc/Dropbox/N64_DEV_STUFF/n64dev/lib\libdragon.a(dma.o)
 .pdr           0x0000000000001000      0x100 C:/Users/spenc/Dropbox/N64_DEV_STUFF/n64dev/lib\libdragon.a(timer.o)
 .pdr           0x0000000000001100      0x1a0 C:/Users/spenc/Dropbox/N64_DEV_STUFF/n64dev/lib\libdragon.a(n64sys.o)
 .pdr           0x00000000000012a0        0x0 C:/Users/spenc/Dropbox/N64_DEV_STUFF/n64dev/lib\libdragon.a(inthandler.o)
 .pdr           0x00000000000012a0       0x60 C:/Users/spenc/Dropbox/N64_DEV_STUFF/n64dev/lib\libdragon.a(exception.o)
 .pdr           0x0000000000001300       0x20 C:/Users/spenc/Dropbox/N64_DEV_STUFF/n64dev/mips64-elf/lib\libm.a(lib_a-sf_cos.o)
 .pdr           0x0000000000001320       0x20 C:/Users/spenc/Dropbox/N64_DEV_STUFF/n64dev/mips64-elf/lib\libm.a(lib_a-sf_sin.o)
 .pdr           0x0000000000001340       0x20 C:/Users/spenc/Dropbox/N64_DEV_STUFF/n64dev/mips64-elf/lib\libm.a(lib_a-ef_rem_pio2.o)
 .pdr           0x0000000000001360       0x20 C:/Users/spenc/Dropbox/N64_DEV_STUFF/n64dev/mips64-elf/lib\libm.a(lib_a-kf_cos.o)
 .pdr           0x0000000000001380       0x20 C:/Users/spenc/Dropbox/N64_DEV_STUFF/n64dev/mips64-elf/lib\libm.a(lib_a-kf_rem_pio2.o)
 .pdr           0x00000000000013a0       0x20 C:/Users/spenc/Dropbox/N64_DEV_STUFF/n64dev/mips64-elf/lib\libm.a(lib_a-kf_sin.o)
 .pdr           0x00000000000013c0       0x20 C:/Users/spenc/Dropbox/N64_DEV_STUFF/n64dev/mips64-elf/lib\libm.a(lib_a-sf_fabs.o)
 .pdr           0x00000000000013e0       0x20 C:/Users/spenc/Dropbox/N64_DEV_STUFF/n64dev/mips64-elf/lib\libm.a(lib_a-sf_floor.o)
 .pdr           0x0000000000001400       0x20 C:/Users/spenc/Dropbox/N64_DEV_STUFF/n64dev/mips64-elf/lib\libm.a(lib_a-sf_scalbn.o)
 .pdr           0x0000000000001420       0x20 C:/Users/spenc/Dropbox/N64_DEV_STUFF/n64dev/mips64-elf/lib\libm.a(lib_a-sf_copysign.o)
 .pdr           0x0000000000001440       0x40 C:/Users/spenc/Dropbox/N64_DEV_STUFF/n64dev/mips64-elf/lib\libc.a(lib_a-malloc.o)
 .pdr           0x0000000000001480       0x20 C:/Users/spenc/Dropbox/N64_DEV_STUFF/n64dev/mips64-elf/lib\libc.a(lib_a-mallocr.o)
 .pdr           0x00000000000014a0       0x20 C:/Users/spenc/Dropbox/N64_DEV_STUFF/n64dev/mips64-elf/lib\libc.a(lib_a-memcpy.o)
 .pdr           0x00000000000014c0       0x20 C:/Users/spenc/Dropbox/N64_DEV_STUFF/n64dev/mips64-elf/lib\libc.a(lib_a-memset.o)
 .pdr           0x00000000000014e0       0x40 C:/Users/spenc/Dropbox/N64_DEV_STUFF/n64dev/mips64-elf/lib\libc.a(lib_a-mlock.o)
 .pdr           0x0000000000001520       0x20 C:/Users/spenc/Dropbox/N64_DEV_STUFF/n64dev/mips64-elf/lib\libc.a(lib_a-sbrkr.o)
 .pdr           0x0000000000001540       0x40 C:/Users/spenc/Dropbox/N64_DEV_STUFF/n64dev/mips64-elf/lib\libc.a(lib_a-sprintf.o)
 .pdr           0x0000000000001580       0x20 C:/Users/spenc/Dropbox/N64_DEV_STUFF/n64dev/mips64-elf/lib\libc.a(lib_a-strcmp.o)
 .pdr           0x00000000000015a0       0x20 C:/Users/spenc/Dropbox/N64_DEV_STUFF/n64dev/mips64-elf/lib\libc.a(lib_a-strcpy.o)
 .pdr           0x00000000000015c0       0x20 C:/Users/spenc/Dropbox/N64_DEV_STUFF/n64dev/mips64-elf/lib\libc.a(lib_a-strlen.o)
 .pdr           0x00000000000015e0       0x40 C:/Users/spenc/Dropbox/N64_DEV_STUFF/n64dev/mips64-elf/lib\libc.a(lib_a-svfprintf.o)
 .pdr           0x0000000000001620       0x40 C:/Users/spenc/Dropbox/N64_DEV_STUFF/n64dev/mips64-elf/lib\libc.a(lib_a-dtoa.o)
 .pdr           0x0000000000001660       0x40 C:/Users/spenc/Dropbox/N64_DEV_STUFF/n64dev/mips64-elf/lib\libc.a(lib_a-freer.o)
 .pdr           0x00000000000016a0        0x0 C:/Users/spenc/Dropbox/N64_DEV_STUFF/n64dev/mips64-elf/lib\libc.a(lib_a-impure.o)
 .pdr           0x00000000000016a0       0xa0 C:/Users/spenc/Dropbox/N64_DEV_STUFF/n64dev/mips64-elf/lib\libc.a(lib_a-locale.o)
 .pdr           0x0000000000001740       0x20 C:/Users/spenc/Dropbox/N64_DEV_STUFF/n64dev/mips64-elf/lib\libc.a(lib_a-memchr.o)
 .pdr           0x0000000000001760       0x20 C:/Users/spenc/Dropbox/N64_DEV_STUFF/n64dev/mips64-elf/lib\libc.a(lib_a-memmove.o)
 .pdr           0x0000000000001780      0x260 C:/Users/spenc/Dropbox/N64_DEV_STUFF/n64dev/mips64-elf/lib\libc.a(lib_a-mprec.o)
 .pdr           0x00000000000019e0       0x20 C:/Users/spenc/Dropbox/N64_DEV_STUFF/n64dev/mips64-elf/lib\libc.a(lib_a-reallocr.o)
 .pdr           0x0000000000001a00       0x60 C:/Users/spenc/Dropbox/N64_DEV_STUFF/n64dev/mips64-elf/lib\libc.a(lib_a-reent.o)
 .pdr           0x0000000000001a60       0x20 C:/Users/spenc/Dropbox/N64_DEV_STUFF/n64dev/mips64-elf/lib\libc.a(lib_a-s_isinfd.o)
 .pdr           0x0000000000001a80       0x20 C:/Users/spenc/Dropbox/N64_DEV_STUFF/n64dev/mips64-elf/lib\libc.a(lib_a-s_isnand.o)
 .pdr           0x0000000000001aa0       0x20 C:/Users/spenc/Dropbox/N64_DEV_STUFF/n64dev/mips64-elf/lib\libc.a(lib_a-callocr.o)
 .pdr           0x0000000000001ac0      0x440 C:/Users/spenc/Dropbox/N64_DEV_STUFF/n64dev/lib\libdragonsys.a(system.o)

.mdebug.abiO64  0x0000000000000000        0x0
 .mdebug.abiO64
                0x0000000000000000        0x0 LibN64.o
 .mdebug.abiO64
                0x0000000000000000        0x0 main.o
 .mdebug.abiO64
                0x0000000000000000        0x0 C:/Users/spenc/Dropbox/N64_DEV_STUFF/n64dev/lib\libdragon.a(interrupt.o)
 .mdebug.abiO64
                0x0000000000000000        0x0 C:/Users/spenc/Dropbox/N64_DEV_STUFF/n64dev/lib\libdragon.a(dragonfs.o)
 .mdebug.abiO64
                0x0000000000000000        0x0 C:/Users/spenc/Dropbox/N64_DEV_STUFF/n64dev/lib\libdragon.a(display.o)
 .mdebug.abiO64
                0x0000000000000000        0x0 C:/Users/spenc/Dropbox/N64_DEV_STUFF/n64dev/lib\libdragon.a(controller.o)
 .mdebug.abiO64
                0x0000000000000000        0x0 C:/Users/spenc/Dropbox/N64_DEV_STUFF/n64dev/lib\libdragon.a(graphics.o)
 .mdebug.abiO64
                0x0000000000000000        0x0 C:/Users/spenc/Dropbox/N64_DEV_STUFF/n64dev/lib\libdragon.a(dma.o)
 .mdebug.abiO64
                0x0000000000000000        0x0 C:/Users/spenc/Dropbox/N64_DEV_STUFF/n64dev/lib\libdragon.a(timer.o)
 .mdebug.abiO64
                0x0000000000000000        0x0 C:/Users/spenc/Dropbox/N64_DEV_STUFF/n64dev/lib\libdragon.a(n64sys.o)
 .mdebug.abiO64
                0x0000000000000000        0x0 C:/Users/spenc/Dropbox/N64_DEV_STUFF/n64dev/lib\libdragon.a(exception.o)
 .mdebug.abiO64
                0x0000000000000000        0x0 C:/Users/spenc/Dropbox/N64_DEV_STUFF/n64dev/mips64-elf/lib\libm.a(lib_a-sf_cos.o)
 .mdebug.abiO64
                0x0000000000000000        0x0 C:/Users/spenc/Dropbox/N64_DEV_STUFF/n64dev/mips64-elf/lib\libm.a(lib_a-sf_sin.o)
 .mdebug.abiO64
                0x0000000000000000        0x0 C:/Users/spenc/Dropbox/N64_DEV_STUFF/n64dev/mips64-elf/lib\libm.a(lib_a-ef_rem_pio2.o)
 .mdebug.abiO64
                0x0000000000000000        0x0 C:/Users/spenc/Dropbox/N64_DEV_STUFF/n64dev/mips64-elf/lib\libm.a(lib_a-kf_cos.o)
 .mdebug.abiO64
                0x0000000000000000        0x0 C:/Users/spenc/Dropbox/N64_DEV_STUFF/n64dev/mips64-elf/lib\libm.a(lib_a-kf_rem_pio2.o)
 .mdebug.abiO64
                0x0000000000000000        0x0 C:/Users/spenc/Dropbox/N64_DEV_STUFF/n64dev/mips64-elf/lib\libm.a(lib_a-kf_sin.o)
 .mdebug.abiO64
                0x0000000000000000        0x0 C:/Users/spenc/Dropbox/N64_DEV_STUFF/n64dev/mips64-elf/lib\libm.a(lib_a-sf_fabs.o)
 .mdebug.abiO64
                0x0000000000000000        0x0 C:/Users/spenc/Dropbox/N64_DEV_STUFF/n64dev/mips64-elf/lib\libm.a(lib_a-sf_floor.o)
 .mdebug.abiO64
                0x0000000000000000        0x0 C:/Users/spenc/Dropbox/N64_DEV_STUFF/n64dev/mips64-elf/lib\libm.a(lib_a-sf_scalbn.o)
 .mdebug.abiO64
                0x0000000000000000        0x0 C:/Users/spenc/Dropbox/N64_DEV_STUFF/n64dev/mips64-elf/lib\libm.a(lib_a-sf_copysign.o)
 .mdebug.abiO64
                0x0000000000000000        0x0 C:/Users/spenc/Dropbox/N64_DEV_STUFF/n64dev/mips64-elf/lib\libc.a(lib_a-malloc.o)
 .mdebug.abiO64
                0x0000000000000000        0x0 C:/Users/spenc/Dropbox/N64_DEV_STUFF/n64dev/mips64-elf/lib\libc.a(lib_a-mallocr.o)
 .mdebug.abiO64
                0x0000000000000000        0x0 C:/Users/spenc/Dropbox/N64_DEV_STUFF/n64dev/mips64-elf/lib\libc.a(lib_a-memcpy.o)
 .mdebug.abiO64
                0x0000000000000000        0x0 C:/Users/spenc/Dropbox/N64_DEV_STUFF/n64dev/mips64-elf/lib\libc.a(lib_a-memset.o)
 .mdebug.abiO64
                0x0000000000000000        0x0 C:/Users/spenc/Dropbox/N64_DEV_STUFF/n64dev/mips64-elf/lib\libc.a(lib_a-mlock.o)
 .mdebug.abiO64
                0x0000000000000000        0x0 C:/Users/spenc/Dropbox/N64_DEV_STUFF/n64dev/mips64-elf/lib\libc.a(lib_a-sbrkr.o)
 .mdebug.abiO64
                0x0000000000000000        0x0 C:/Users/spenc/Dropbox/N64_DEV_STUFF/n64dev/mips64-elf/lib\libc.a(lib_a-sprintf.o)
 .mdebug.abiO64
                0x0000000000000000        0x0 C:/Users/spenc/Dropbox/N64_DEV_STUFF/n64dev/mips64-elf/lib\libc.a(lib_a-strcmp.o)
 .mdebug.abiO64
                0x0000000000000000        0x0 C:/Users/spenc/Dropbox/N64_DEV_STUFF/n64dev/mips64-elf/lib\libc.a(lib_a-strcpy.o)
 .mdebug.abiO64
                0x0000000000000000        0x0 C:/Users/spenc/Dropbox/N64_DEV_STUFF/n64dev/mips64-elf/lib\libc.a(lib_a-strlen.o)
 .mdebug.abiO64
                0x0000000000000000        0x0 C:/Users/spenc/Dropbox/N64_DEV_STUFF/n64dev/mips64-elf/lib\libc.a(lib_a-svfprintf.o)
 .mdebug.abiO64
                0x0000000000000000        0x0 C:/Users/spenc/Dropbox/N64_DEV_STUFF/n64dev/mips64-elf/lib\libc.a(lib_a-dtoa.o)
 .mdebug.abiO64
                0x0000000000000000        0x0 C:/Users/spenc/Dropbox/N64_DEV_STUFF/n64dev/mips64-elf/lib\libc.a(lib_a-freer.o)
 .mdebug.abiO64
                0x0000000000000000        0x0 C:/Users/spenc/Dropbox/N64_DEV_STUFF/n64dev/mips64-elf/lib\libc.a(lib_a-impure.o)
 .mdebug.abiO64
                0x0000000000000000        0x0 C:/Users/spenc/Dropbox/N64_DEV_STUFF/n64dev/mips64-elf/lib\libc.a(lib_a-locale.o)
 .mdebug.abiO64
                0x0000000000000000        0x0 C:/Users/spenc/Dropbox/N64_DEV_STUFF/n64dev/mips64-elf/lib\libc.a(lib_a-memchr.o)
 .mdebug.abiO64
                0x0000000000000000        0x0 C:/Users/spenc/Dropbox/N64_DEV_STUFF/n64dev/mips64-elf/lib\libc.a(lib_a-memmove.o)
 .mdebug.abiO64
                0x0000000000000000        0x0 C:/Users/spenc/Dropbox/N64_DEV_STUFF/n64dev/mips64-elf/lib\libc.a(lib_a-mprec.o)
 .mdebug.abiO64
                0x0000000000000000        0x0 C:/Users/spenc/Dropbox/N64_DEV_STUFF/n64dev/mips64-elf/lib\libc.a(lib_a-reallocr.o)
 .mdebug.abiO64
                0x0000000000000000        0x0 C:/Users/spenc/Dropbox/N64_DEV_STUFF/n64dev/mips64-elf/lib\libc.a(lib_a-reent.o)
 .mdebug.abiO64
                0x0000000000000000        0x0 C:/Users/spenc/Dropbox/N64_DEV_STUFF/n64dev/mips64-elf/lib\libc.a(lib_a-s_isinfd.o)
 .mdebug.abiO64
                0x0000000000000000        0x0 C:/Users/spenc/Dropbox/N64_DEV_STUFF/n64dev/mips64-elf/lib\libc.a(lib_a-s_isnand.o)
 .mdebug.abiO64
                0x0000000000000000        0x0 C:/Users/spenc/Dropbox/N64_DEV_STUFF/n64dev/mips64-elf/lib\libc.a(lib_a-callocr.o)
 .mdebug.abiO64
                0x0000000000000000        0x0 C:/Users/spenc/Dropbox/N64_DEV_STUFF/n64dev/lib\libdragonsys.a(system.o)

.gcc_compiled_long32
                0x0000000000000000        0x0
 .gcc_compiled_long32
                0x0000000000000000        0x0 LibN64.o
 .gcc_compiled_long32
                0x0000000000000000        0x0 main.o
 .gcc_compiled_long32
                0x0000000000000000        0x0 C:/Users/spenc/Dropbox/N64_DEV_STUFF/n64dev/lib\libdragon.a(interrupt.o)
 .gcc_compiled_long32
                0x0000000000000000        0x0 C:/Users/spenc/Dropbox/N64_DEV_STUFF/n64dev/lib\libdragon.a(dragonfs.o)
 .gcc_compiled_long32
                0x0000000000000000        0x0 C:/Users/spenc/Dropbox/N64_DEV_STUFF/n64dev/lib\libdragon.a(display.o)
 .gcc_compiled_long32
                0x0000000000000000        0x0 C:/Users/spenc/Dropbox/N64_DEV_STUFF/n64dev/lib\libdragon.a(controller.o)
 .gcc_compiled_long32
                0x0000000000000000        0x0 C:/Users/spenc/Dropbox/N64_DEV_STUFF/n64dev/lib\libdragon.a(graphics.o)
 .gcc_compiled_long32
                0x0000000000000000        0x0 C:/Users/spenc/Dropbox/N64_DEV_STUFF/n64dev/lib\libdragon.a(dma.o)
 .gcc_compiled_long32
                0x0000000000000000        0x0 C:/Users/spenc/Dropbox/N64_DEV_STUFF/n64dev/lib\libdragon.a(timer.o)
 .gcc_compiled_long32
                0x0000000000000000        0x0 C:/Users/spenc/Dropbox/N64_DEV_STUFF/n64dev/lib\libdragon.a(n64sys.o)
 .gcc_compiled_long32
                0x0000000000000000        0x0 C:/Users/spenc/Dropbox/N64_DEV_STUFF/n64dev/lib\libdragon.a(exception.o)
 .gcc_compiled_long32
                0x0000000000000000        0x0 C:/Users/spenc/Dropbox/N64_DEV_STUFF/n64dev/mips64-elf/lib\libm.a(lib_a-sf_cos.o)
 .gcc_compiled_long32
                0x0000000000000000        0x0 C:/Users/spenc/Dropbox/N64_DEV_STUFF/n64dev/mips64-elf/lib\libm.a(lib_a-sf_sin.o)
 .gcc_compiled_long32
                0x0000000000000000        0x0 C:/Users/spenc/Dropbox/N64_DEV_STUFF/n64dev/mips64-elf/lib\libm.a(lib_a-ef_rem_pio2.o)
 .gcc_compiled_long32
                0x0000000000000000        0x0 C:/Users/spenc/Dropbox/N64_DEV_STUFF/n64dev/mips64-elf/lib\libm.a(lib_a-kf_cos.o)
 .gcc_compiled_long32
                0x0000000000000000        0x0 C:/Users/spenc/Dropbox/N64_DEV_STUFF/n64dev/mips64-elf/lib\libm.a(lib_a-kf_rem_pio2.o)
 .gcc_compiled_long32
                0x0000000000000000        0x0 C:/Users/spenc/Dropbox/N64_DEV_STUFF/n64dev/mips64-elf/lib\libm.a(lib_a-kf_sin.o)
 .gcc_compiled_long32
                0x0000000000000000        0x0 C:/Users/spenc/Dropbox/N64_DEV_STUFF/n64dev/mips64-elf/lib\libm.a(lib_a-sf_fabs.o)
 .gcc_compiled_long32
                0x0000000000000000        0x0 C:/Users/spenc/Dropbox/N64_DEV_STUFF/n64dev/mips64-elf/lib\libm.a(lib_a-sf_floor.o)
 .gcc_compiled_long32
                0x0000000000000000        0x0 C:/Users/spenc/Dropbox/N64_DEV_STUFF/n64dev/mips64-elf/lib\libm.a(lib_a-sf_scalbn.o)
 .gcc_compiled_long32
                0x0000000000000000        0x0 C:/Users/spenc/Dropbox/N64_DEV_STUFF/n64dev/mips64-elf/lib\libm.a(lib_a-sf_copysign.o)
 .gcc_compiled_long32
                0x0000000000000000        0x0 C:/Users/spenc/Dropbox/N64_DEV_STUFF/n64dev/mips64-elf/lib\libc.a(lib_a-malloc.o)
 .gcc_compiled_long32
                0x0000000000000000        0x0 C:/Users/spenc/Dropbox/N64_DEV_STUFF/n64dev/mips64-elf/lib\libc.a(lib_a-mallocr.o)
 .gcc_compiled_long32
                0x0000000000000000        0x0 C:/Users/spenc/Dropbox/N64_DEV_STUFF/n64dev/mips64-elf/lib\libc.a(lib_a-memcpy.o)
 .gcc_compiled_long32
                0x0000000000000000        0x0 C:/Users/spenc/Dropbox/N64_DEV_STUFF/n64dev/mips64-elf/lib\libc.a(lib_a-memset.o)
 .gcc_compiled_long32
                0x0000000000000000        0x0 C:/Users/spenc/Dropbox/N64_DEV_STUFF/n64dev/mips64-elf/lib\libc.a(lib_a-mlock.o)
 .gcc_compiled_long32
                0x0000000000000000        0x0 C:/Users/spenc/Dropbox/N64_DEV_STUFF/n64dev/mips64-elf/lib\libc.a(lib_a-sbrkr.o)
 .gcc_compiled_long32
                0x0000000000000000        0x0 C:/Users/spenc/Dropbox/N64_DEV_STUFF/n64dev/mips64-elf/lib\libc.a(lib_a-sprintf.o)
 .gcc_compiled_long32
                0x0000000000000000        0x0 C:/Users/spenc/Dropbox/N64_DEV_STUFF/n64dev/mips64-elf/lib\libc.a(lib_a-strcmp.o)
 .gcc_compiled_long32
                0x0000000000000000        0x0 C:/Users/spenc/Dropbox/N64_DEV_STUFF/n64dev/mips64-elf/lib\libc.a(lib_a-strcpy.o)
 .gcc_compiled_long32
                0x0000000000000000        0x0 C:/Users/spenc/Dropbox/N64_DEV_STUFF/n64dev/mips64-elf/lib\libc.a(lib_a-strlen.o)
 .gcc_compiled_long32
                0x0000000000000000        0x0 C:/Users/spenc/Dropbox/N64_DEV_STUFF/n64dev/mips64-elf/lib\libc.a(lib_a-svfprintf.o)
 .gcc_compiled_long32
                0x0000000000000000        0x0 C:/Users/spenc/Dropbox/N64_DEV_STUFF/n64dev/mips64-elf/lib\libc.a(lib_a-dtoa.o)
 .gcc_compiled_long32
                0x0000000000000000        0x0 C:/Users/spenc/Dropbox/N64_DEV_STUFF/n64dev/mips64-elf/lib\libc.a(lib_a-freer.o)
 .gcc_compiled_long32
                0x0000000000000000        0x0 C:/Users/spenc/Dropbox/N64_DEV_STUFF/n64dev/mips64-elf/lib\libc.a(lib_a-impure.o)
 .gcc_compiled_long32
                0x0000000000000000        0x0 C:/Users/spenc/Dropbox/N64_DEV_STUFF/n64dev/mips64-elf/lib\libc.a(lib_a-locale.o)
 .gcc_compiled_long32
                0x0000000000000000        0x0 C:/Users/spenc/Dropbox/N64_DEV_STUFF/n64dev/mips64-elf/lib\libc.a(lib_a-memchr.o)
 .gcc_compiled_long32
                0x0000000000000000        0x0 C:/Users/spenc/Dropbox/N64_DEV_STUFF/n64dev/mips64-elf/lib\libc.a(lib_a-memmove.o)
 .gcc_compiled_long32
                0x0000000000000000        0x0 C:/Users/spenc/Dropbox/N64_DEV_STUFF/n64dev/mips64-elf/lib\libc.a(lib_a-mprec.o)
 .gcc_compiled_long32
                0x0000000000000000        0x0 C:/Users/spenc/Dropbox/N64_DEV_STUFF/n64dev/mips64-elf/lib\libc.a(lib_a-reallocr.o)
 .gcc_compiled_long32
                0x0000000000000000        0x0 C:/Users/spenc/Dropbox/N64_DEV_STUFF/n64dev/mips64-elf/lib\libc.a(lib_a-reent.o)
 .gcc_compiled_long32
                0x0000000000000000        0x0 C:/Users/spenc/Dropbox/N64_DEV_STUFF/n64dev/mips64-elf/lib\libc.a(lib_a-s_isinfd.o)
 .gcc_compiled_long32
                0x0000000000000000        0x0 C:/Users/spenc/Dropbox/N64_DEV_STUFF/n64dev/mips64-elf/lib\libc.a(lib_a-s_isnand.o)
 .gcc_compiled_long32
                0x0000000000000000        0x0 C:/Users/spenc/Dropbox/N64_DEV_STUFF/n64dev/mips64-elf/lib\libc.a(lib_a-callocr.o)
 .gcc_compiled_long32
                0x0000000000000000        0x0 C:/Users/spenc/Dropbox/N64_DEV_STUFF/n64dev/lib\libdragonsys.a(system.o)

.comment        0x0000000000000000      0x287
 .comment       0x0000000000000000       0x12 LibN64.o
 .comment       0x0000000000000012       0x12 main.o
 .comment       0x0000000000000024       0x11 C:/Users/spenc/Dropbox/N64_DEV_STUFF/n64dev/lib\libdragon.a(interrupt.o)
                                         0x12 (size before relaxing)
 .comment       0x0000000000000000       0x12 C:/Users/spenc/Dropbox/N64_DEV_STUFF/n64dev/lib\libdragon.a(dragonfs.o)
 .comment       0x0000000000000000       0x12 C:/Users/spenc/Dropbox/N64_DEV_STUFF/n64dev/lib\libdragon.a(display.o)
 .comment       0x0000000000000000       0x12 C:/Users/spenc/Dropbox/N64_DEV_STUFF/n64dev/lib\libdragon.a(controller.o)
 .comment       0x0000000000000000       0x12 C:/Users/spenc/Dropbox/N64_DEV_STUFF/n64dev/lib\libdragon.a(graphics.o)
 .comment       0x0000000000000000       0x12 C:/Users/spenc/Dropbox/N64_DEV_STUFF/n64dev/lib\libdragon.a(dma.o)
 .comment       0x0000000000000000       0x12 C:/Users/spenc/Dropbox/N64_DEV_STUFF/n64dev/lib\libdragon.a(timer.o)
 .comment       0x0000000000000000       0x12 C:/Users/spenc/Dropbox/N64_DEV_STUFF/n64dev/lib\libdragon.a(n64sys.o)
 .comment       0x0000000000000000       0x12 C:/Users/spenc/Dropbox/N64_DEV_STUFF/n64dev/lib\libdragon.a(exception.o)
 .comment       0x0000000000000035       0x12 C:/Users/spenc/Dropbox/N64_DEV_STUFF/n64dev/mips64-elf/lib\libm.a(lib_a-sf_cos.o)
 .comment       0x0000000000000047       0x12 C:/Users/spenc/Dropbox/N64_DEV_STUFF/n64dev/mips64-elf/lib\libm.a(lib_a-sf_sin.o)
 .comment       0x0000000000000059       0x12 C:/Users/spenc/Dropbox/N64_DEV_STUFF/n64dev/mips64-elf/lib\libm.a(lib_a-ef_rem_pio2.o)
 .comment       0x000000000000006b       0x12 C:/Users/spenc/Dropbox/N64_DEV_STUFF/n64dev/mips64-elf/lib\libm.a(lib_a-kf_cos.o)
 .comment       0x000000000000007d       0x12 C:/Users/spenc/Dropbox/N64_DEV_STUFF/n64dev/mips64-elf/lib\libm.a(lib_a-kf_rem_pio2.o)
 .comment       0x000000000000008f       0x12 C:/Users/spenc/Dropbox/N64_DEV_STUFF/n64dev/mips64-elf/lib\libm.a(lib_a-kf_sin.o)
 .comment       0x00000000000000a1       0x12 C:/Users/spenc/Dropbox/N64_DEV_STUFF/n64dev/mips64-elf/lib\libm.a(lib_a-sf_fabs.o)
 .comment       0x00000000000000b3       0x12 C:/Users/spenc/Dropbox/N64_DEV_STUFF/n64dev/mips64-elf/lib\libm.a(lib_a-sf_floor.o)
 .comment       0x00000000000000c5       0x12 C:/Users/spenc/Dropbox/N64_DEV_STUFF/n64dev/mips64-elf/lib\libm.a(lib_a-sf_scalbn.o)
 .comment       0x00000000000000d7       0x12 C:/Users/spenc/Dropbox/N64_DEV_STUFF/n64dev/mips64-elf/lib\libm.a(lib_a-sf_copysign.o)
 .comment       0x00000000000000e9       0x12 C:/Users/spenc/Dropbox/N64_DEV_STUFF/n64dev/mips64-elf/lib\libc.a(lib_a-malloc.o)
 .comment       0x00000000000000fb       0x12 C:/Users/spenc/Dropbox/N64_DEV_STUFF/n64dev/mips64-elf/lib\libc.a(lib_a-mallocr.o)
 .comment       0x000000000000010d       0x12 C:/Users/spenc/Dropbox/N64_DEV_STUFF/n64dev/mips64-elf/lib\libc.a(lib_a-memcpy.o)
 .comment       0x000000000000011f       0x12 C:/Users/spenc/Dropbox/N64_DEV_STUFF/n64dev/mips64-elf/lib\libc.a(lib_a-memset.o)
 .comment       0x0000000000000131       0x12 C:/Users/spenc/Dropbox/N64_DEV_STUFF/n64dev/mips64-elf/lib\libc.a(lib_a-mlock.o)
 .comment       0x0000000000000143       0x12 C:/Users/spenc/Dropbox/N64_DEV_STUFF/n64dev/mips64-elf/lib\libc.a(lib_a-sbrkr.o)
 .comment       0x0000000000000155       0x12 C:/Users/spenc/Dropbox/N64_DEV_STUFF/n64dev/mips64-elf/lib\libc.a(lib_a-sprintf.o)
 .comment       0x0000000000000167       0x12 C:/Users/spenc/Dropbox/N64_DEV_STUFF/n64dev/mips64-elf/lib\libc.a(lib_a-strcmp.o)
 .comment       0x0000000000000179       0x12 C:/Users/spenc/Dropbox/N64_DEV_STUFF/n64dev/mips64-elf/lib\libc.a(lib_a-strcpy.o)
 .comment       0x000000000000018b       0x12 C:/Users/spenc/Dropbox/N64_DEV_STUFF/n64dev/mips64-elf/lib\libc.a(lib_a-strlen.o)
 .comment       0x000000000000019d       0x12 C:/Users/spenc/Dropbox/N64_DEV_STUFF/n64dev/mips64-elf/lib\libc.a(lib_a-svfprintf.o)
 .comment       0x00000000000001af       0x12 C:/Users/spenc/Dropbox/N64_DEV_STUFF/n64dev/mips64-elf/lib\libc.a(lib_a-dtoa.o)
 .comment       0x00000000000001c1       0x12 C:/Users/spenc/Dropbox/N64_DEV_STUFF/n64dev/mips64-elf/lib\libc.a(lib_a-freer.o)
 .comment       0x00000000000001d3       0x12 C:/Users/spenc/Dropbox/N64_DEV_STUFF/n64dev/mips64-elf/lib\libc.a(lib_a-impure.o)
 .comment       0x00000000000001e5       0x12 C:/Users/spenc/Dropbox/N64_DEV_STUFF/n64dev/mips64-elf/lib\libc.a(lib_a-locale.o)
 .comment       0x00000000000001f7       0x12 C:/Users/spenc/Dropbox/N64_DEV_STUFF/n64dev/mips64-elf/lib\libc.a(lib_a-memchr.o)
 .comment       0x0000000000000209       0x12 C:/Users/spenc/Dropbox/N64_DEV_STUFF/n64dev/mips64-elf/lib\libc.a(lib_a-memmove.o)
 .comment       0x000000000000021b       0x12 C:/Users/spenc/Dropbox/N64_DEV_STUFF/n64dev/mips64-elf/lib\libc.a(lib_a-mprec.o)
 .comment       0x000000000000022d       0x12 C:/Users/spenc/Dropbox/N64_DEV_STUFF/n64dev/mips64-elf/lib\libc.a(lib_a-reallocr.o)
 .comment       0x000000000000023f       0x12 C:/Users/spenc/Dropbox/N64_DEV_STUFF/n64dev/mips64-elf/lib\libc.a(lib_a-reent.o)
 .comment       0x0000000000000251       0x12 C:/Users/spenc/Dropbox/N64_DEV_STUFF/n64dev/mips64-elf/lib\libc.a(lib_a-s_isinfd.o)
 .comment       0x0000000000000263       0x12 C:/Users/spenc/Dropbox/N64_DEV_STUFF/n64dev/mips64-elf/lib\libc.a(lib_a-s_isnand.o)
 .comment       0x0000000000000275       0x12 C:/Users/spenc/Dropbox/N64_DEV_STUFF/n64dev/mips64-elf/lib\libc.a(lib_a-callocr.o)
 .comment       0x0000000000000000       0x12 C:/Users/spenc/Dropbox/N64_DEV_STUFF/n64dev/lib\libdragonsys.a(system.o)

.gnu.attributes
                0x0000000000000000       0x10
 .gnu.attributes
                0x0000000000000000       0x10 LibN64.o
 .gnu.attributes
                0x0000000000000010       0x10 main.o
 .gnu.attributes
                0x0000000000000020       0x10 C:/Users/spenc/Dropbox/N64_DEV_STUFF/n64dev/lib\libdragon.a(interrupt.o)
 .gnu.attributes
                0x0000000000000030       0x10 C:/Users/spenc/Dropbox/N64_DEV_STUFF/n64dev/lib\libdragon.a(dragonfs.o)
 .gnu.attributes
                0x0000000000000040       0x10 C:/Users/spenc/Dropbox/N64_DEV_STUFF/n64dev/lib\libdragon.a(display.o)
 .gnu.attributes
                0x0000000000000050       0x10 C:/Users/spenc/Dropbox/N64_DEV_STUFF/n64dev/lib\libdragon.a(controller.o)
 .gnu.attributes
                0x0000000000000060       0x10 C:/Users/spenc/Dropbox/N64_DEV_STUFF/n64dev/lib\libdragon.a(graphics.o)
 .gnu.attributes
                0x0000000000000070       0x10 C:/Users/spenc/Dropbox/N64_DEV_STUFF/n64dev/lib\libdragon.a(dma.o)
 .gnu.attributes
                0x0000000000000080       0x10 C:/Users/spenc/Dropbox/N64_DEV_STUFF/n64dev/lib\libdragon.a(timer.o)
 .gnu.attributes
                0x0000000000000090       0x10 C:/Users/spenc/Dropbox/N64_DEV_STUFF/n64dev/lib\libdragon.a(n64sys.o)
 .gnu.attributes
                0x00000000000000a0       0x10 C:/Users/spenc/Dropbox/N64_DEV_STUFF/n64dev/lib\libdragon.a(exception.o)
 .gnu.attributes
                0x00000000000000b0       0x10 C:/Users/spenc/Dropbox/N64_DEV_STUFF/n64dev/mips64-elf/lib\libm.a(lib_a-sf_cos.o)
 .gnu.attributes
                0x00000000000000c0       0x10 C:/Users/spenc/Dropbox/N64_DEV_STUFF/n64dev/mips64-elf/lib\libm.a(lib_a-sf_sin.o)
 .gnu.attributes
                0x00000000000000d0       0x10 C:/Users/spenc/Dropbox/N64_DEV_STUFF/n64dev/mips64-elf/lib\libm.a(lib_a-ef_rem_pio2.o)
 .gnu.attributes
                0x00000000000000e0       0x10 C:/Users/spenc/Dropbox/N64_DEV_STUFF/n64dev/mips64-elf/lib\libm.a(lib_a-kf_cos.o)
 .gnu.attributes
                0x00000000000000f0       0x10 C:/Users/spenc/Dropbox/N64_DEV_STUFF/n64dev/mips64-elf/lib\libm.a(lib_a-kf_rem_pio2.o)
 .gnu.attributes
                0x0000000000000100       0x10 C:/Users/spenc/Dropbox/N64_DEV_STUFF/n64dev/mips64-elf/lib\libm.a(lib_a-kf_sin.o)
 .gnu.attributes
                0x0000000000000110       0x10 C:/Users/spenc/Dropbox/N64_DEV_STUFF/n64dev/mips64-elf/lib\libm.a(lib_a-sf_fabs.o)
 .gnu.attributes
                0x0000000000000120       0x10 C:/Users/spenc/Dropbox/N64_DEV_STUFF/n64dev/mips64-elf/lib\libm.a(lib_a-sf_floor.o)
 .gnu.attributes
                0x0000000000000130       0x10 C:/Users/spenc/Dropbox/N64_DEV_STUFF/n64dev/mips64-elf/lib\libm.a(lib_a-sf_scalbn.o)
 .gnu.attributes
                0x0000000000000140       0x10 C:/Users/spenc/Dropbox/N64_DEV_STUFF/n64dev/mips64-elf/lib\libm.a(lib_a-sf_copysign.o)
 .gnu.attributes
                0x0000000000000150       0x10 C:/Users/spenc/Dropbox/N64_DEV_STUFF/n64dev/mips64-elf/lib\libc.a(lib_a-malloc.o)
 .gnu.attributes
                0x0000000000000160       0x10 C:/Users/spenc/Dropbox/N64_DEV_STUFF/n64dev/mips64-elf/lib\libc.a(lib_a-mallocr.o)
 .gnu.attributes
                0x0000000000000170       0x10 C:/Users/spenc/Dropbox/N64_DEV_STUFF/n64dev/mips64-elf/lib\libc.a(lib_a-memcpy.o)
 .gnu.attributes
                0x0000000000000180       0x10 C:/Users/spenc/Dropbox/N64_DEV_STUFF/n64dev/mips64-elf/lib\libc.a(lib_a-memset.o)
 .gnu.attributes
                0x0000000000000190       0x10 C:/Users/spenc/Dropbox/N64_DEV_STUFF/n64dev/mips64-elf/lib\libc.a(lib_a-mlock.o)
 .gnu.attributes
                0x00000000000001a0       0x10 C:/Users/spenc/Dropbox/N64_DEV_STUFF/n64dev/mips64-elf/lib\libc.a(lib_a-sbrkr.o)
 .gnu.attributes
                0x00000000000001b0       0x10 C:/Users/spenc/Dropbox/N64_DEV_STUFF/n64dev/mips64-elf/lib\libc.a(lib_a-sprintf.o)
 .gnu.attributes
                0x00000000000001c0       0x10 C:/Users/spenc/Dropbox/N64_DEV_STUFF/n64dev/mips64-elf/lib\libc.a(lib_a-strcmp.o)
 .gnu.attributes
                0x00000000000001d0       0x10 C:/Users/spenc/Dropbox/N64_DEV_STUFF/n64dev/mips64-elf/lib\libc.a(lib_a-strcpy.o)
 .gnu.attributes
                0x00000000000001e0       0x10 C:/Users/spenc/Dropbox/N64_DEV_STUFF/n64dev/mips64-elf/lib\libc.a(lib_a-strlen.o)
 .gnu.attributes
                0x00000000000001f0       0x10 C:/Users/spenc/Dropbox/N64_DEV_STUFF/n64dev/mips64-elf/lib\libc.a(lib_a-svfprintf.o)
 .gnu.attributes
                0x0000000000000200       0x10 C:/Users/spenc/Dropbox/N64_DEV_STUFF/n64dev/mips64-elf/lib\libc.a(lib_a-dtoa.o)
 .gnu.attributes
                0x0000000000000210       0x10 C:/Users/spenc/Dropbox/N64_DEV_STUFF/n64dev/mips64-elf/lib\libc.a(lib_a-freer.o)
 .gnu.attributes
                0x0000000000000220       0x10 C:/Users/spenc/Dropbox/N64_DEV_STUFF/n64dev/mips64-elf/lib\libc.a(lib_a-impure.o)
 .gnu.attributes
                0x0000000000000230       0x10 C:/Users/spenc/Dropbox/N64_DEV_STUFF/n64dev/mips64-elf/lib\libc.a(lib_a-locale.o)
 .gnu.attributes
                0x0000000000000240       0x10 C:/Users/spenc/Dropbox/N64_DEV_STUFF/n64dev/mips64-elf/lib\libc.a(lib_a-memchr.o)
 .gnu.attributes
                0x0000000000000250       0x10 C:/Users/spenc/Dropbox/N64_DEV_STUFF/n64dev/mips64-elf/lib\libc.a(lib_a-memmove.o)
 .gnu.attributes
                0x0000000000000260       0x10 C:/Users/spenc/Dropbox/N64_DEV_STUFF/n64dev/mips64-elf/lib\libc.a(lib_a-mprec.o)
 .gnu.attributes
                0x0000000000000270       0x10 C:/Users/spenc/Dropbox/N64_DEV_STUFF/n64dev/mips64-elf/lib\libc.a(lib_a-reallocr.o)
 .gnu.attributes
                0x0000000000000280       0x10 C:/Users/spenc/Dropbox/N64_DEV_STUFF/n64dev/mips64-elf/lib\libc.a(lib_a-reent.o)
 .gnu.attributes
                0x0000000000000290       0x10 C:/Users/spenc/Dropbox/N64_DEV_STUFF/n64dev/mips64-elf/lib\libc.a(lib_a-s_isinfd.o)
 .gnu.attributes
                0x00000000000002a0       0x10 C:/Users/spenc/Dropbox/N64_DEV_STUFF/n64dev/mips64-elf/lib\libc.a(lib_a-s_isnand.o)
 .gnu.attributes
                0x00000000000002b0       0x10 C:/Users/spenc/Dropbox/N64_DEV_STUFF/n64dev/mips64-elf/lib\libc.a(lib_a-callocr.o)
 .gnu.attributes
                0x00000000000002c0       0x10 C:/Users/spenc/Dropbox/N64_DEV_STUFF/n64dev/lib\libdragonsys.a(system.o)

.code           0x0000000000000000        0x0
 .code          0x0000000000000000        0x0 C:/Users/spenc/Dropbox/N64_DEV_STUFF/n64dev/lib\libdragon.a(entrypoint.o)

.debug_abbrev   0x0000000000000000     0x2a1a
 .debug_abbrev  0x0000000000000000       0xf8 C:/Users/spenc/Dropbox/N64_DEV_STUFF/n64dev/mips64-elf/lib\libm.a(lib_a-sf_cos.o)
 .debug_abbrev  0x00000000000000f8       0xe0 C:/Users/spenc/Dropbox/N64_DEV_STUFF/n64dev/mips64-elf/lib\libm.a(lib_a-sf_sin.o)
 .debug_abbrev  0x00000000000001d8      0x11b C:/Users/spenc/Dropbox/N64_DEV_STUFF/n64dev/mips64-elf/lib\libm.a(lib_a-ef_rem_pio2.o)
 .debug_abbrev  0x00000000000002f3       0xd7 C:/Users/spenc/Dropbox/N64_DEV_STUFF/n64dev/mips64-elf/lib\libm.a(lib_a-kf_cos.o)
 .debug_abbrev  0x00000000000003ca      0x11a C:/Users/spenc/Dropbox/N64_DEV_STUFF/n64dev/mips64-elf/lib\libm.a(lib_a-kf_rem_pio2.o)
 .debug_abbrev  0x00000000000004e4       0xe8 C:/Users/spenc/Dropbox/N64_DEV_STUFF/n64dev/mips64-elf/lib\libm.a(lib_a-kf_sin.o)
 .debug_abbrev  0x00000000000005cc       0x73 C:/Users/spenc/Dropbox/N64_DEV_STUFF/n64dev/mips64-elf/lib\libm.a(lib_a-sf_fabs.o)
 .debug_abbrev  0x000000000000063f       0x8d C:/Users/spenc/Dropbox/N64_DEV_STUFF/n64dev/mips64-elf/lib\libm.a(lib_a-sf_floor.o)
 .debug_abbrev  0x00000000000006cc       0x8d C:/Users/spenc/Dropbox/N64_DEV_STUFF/n64dev/mips64-elf/lib\libm.a(lib_a-sf_scalbn.o)
 .debug_abbrev  0x0000000000000759       0x73 C:/Users/spenc/Dropbox/N64_DEV_STUFF/n64dev/mips64-elf/lib\libm.a(lib_a-sf_copysign.o)
 .debug_abbrev  0x00000000000007cc      0x190 C:/Users/spenc/Dropbox/N64_DEV_STUFF/n64dev/mips64-elf/lib\libc.a(lib_a-malloc.o)
 .debug_abbrev  0x000000000000095c      0x221 C:/Users/spenc/Dropbox/N64_DEV_STUFF/n64dev/mips64-elf/lib\libc.a(lib_a-mallocr.o)
 .debug_abbrev  0x0000000000000b7d       0xd6 C:/Users/spenc/Dropbox/N64_DEV_STUFF/n64dev/mips64-elf/lib\libc.a(lib_a-memcpy.o)
 .debug_abbrev  0x0000000000000c53       0xc8 C:/Users/spenc/Dropbox/N64_DEV_STUFF/n64dev/mips64-elf/lib\libc.a(lib_a-memset.o)
 .debug_abbrev  0x0000000000000d1b      0x173 C:/Users/spenc/Dropbox/N64_DEV_STUFF/n64dev/mips64-elf/lib\libc.a(lib_a-mlock.o)
 .debug_abbrev  0x0000000000000e8e      0x197 C:/Users/spenc/Dropbox/N64_DEV_STUFF/n64dev/mips64-elf/lib\libc.a(lib_a-sbrkr.o)
 .debug_abbrev  0x0000000000001025      0x1bc C:/Users/spenc/Dropbox/N64_DEV_STUFF/n64dev/mips64-elf/lib\libc.a(lib_a-sprintf.o)
 .debug_abbrev  0x00000000000011e1       0xa3 C:/Users/spenc/Dropbox/N64_DEV_STUFF/n64dev/mips64-elf/lib\libc.a(lib_a-strcmp.o)
 .debug_abbrev  0x0000000000001284       0x89 C:/Users/spenc/Dropbox/N64_DEV_STUFF/n64dev/mips64-elf/lib\libc.a(lib_a-strcpy.o)
 .debug_abbrev  0x000000000000130d       0x33 C:/Users/spenc/Dropbox/N64_DEV_STUFF/n64dev/mips64-elf/lib\libc.a(lib_a-strlen.o)
 .debug_abbrev  0x0000000000001340      0x327 C:/Users/spenc/Dropbox/N64_DEV_STUFF/n64dev/mips64-elf/lib\libc.a(lib_a-svfprintf.o)
 .debug_abbrev  0x0000000000001667      0x24a C:/Users/spenc/Dropbox/N64_DEV_STUFF/n64dev/mips64-elf/lib\libc.a(lib_a-dtoa.o)
 .debug_abbrev  0x00000000000018b1      0x1e2 C:/Users/spenc/Dropbox/N64_DEV_STUFF/n64dev/mips64-elf/lib\libc.a(lib_a-freer.o)
 .debug_abbrev  0x0000000000001a93      0x160 C:/Users/spenc/Dropbox/N64_DEV_STUFF/n64dev/mips64-elf/lib\libc.a(lib_a-impure.o)
 .debug_abbrev  0x0000000000001bf3      0x241 C:/Users/spenc/Dropbox/N64_DEV_STUFF/n64dev/mips64-elf/lib\libc.a(lib_a-locale.o)
 .debug_abbrev  0x0000000000001e34       0xcd C:/Users/spenc/Dropbox/N64_DEV_STUFF/n64dev/mips64-elf/lib\libc.a(lib_a-memchr.o)
 .debug_abbrev  0x0000000000001f01       0xa2 C:/Users/spenc/Dropbox/N64_DEV_STUFF/n64dev/mips64-elf/lib\libc.a(lib_a-memmove.o)
 .debug_abbrev  0x0000000000001fa3      0x340 C:/Users/spenc/Dropbox/N64_DEV_STUFF/n64dev/mips64-elf/lib\libc.a(lib_a-mprec.o)
 .debug_abbrev  0x00000000000022e3      0x1d5 C:/Users/spenc/Dropbox/N64_DEV_STUFF/n64dev/mips64-elf/lib\libc.a(lib_a-reallocr.o)
 .debug_abbrev  0x00000000000024b8      0x1fa C:/Users/spenc/Dropbox/N64_DEV_STUFF/n64dev/mips64-elf/lib\libc.a(lib_a-reent.o)
 .debug_abbrev  0x00000000000026b2       0xdb C:/Users/spenc/Dropbox/N64_DEV_STUFF/n64dev/mips64-elf/lib\libc.a(lib_a-s_isinfd.o)
 .debug_abbrev  0x000000000000278d       0xcc C:/Users/spenc/Dropbox/N64_DEV_STUFF/n64dev/mips64-elf/lib\libc.a(lib_a-s_isnand.o)
 .debug_abbrev  0x0000000000002859      0x1c1 C:/Users/spenc/Dropbox/N64_DEV_STUFF/n64dev/mips64-elf/lib\libc.a(lib_a-callocr.o)

.debug_info     0x0000000000000000     0xc2da
 .debug_info    0x0000000000000000      0x161 C:/Users/spenc/Dropbox/N64_DEV_STUFF/n64dev/mips64-elf/lib\libm.a(lib_a-sf_cos.o)
 .debug_info    0x0000000000000161      0x148 C:/Users/spenc/Dropbox/N64_DEV_STUFF/n64dev/mips64-elf/lib\libm.a(lib_a-sf_sin.o)
 .debug_info    0x00000000000002a9      0x2e2 C:/Users/spenc/Dropbox/N64_DEV_STUFF/n64dev/mips64-elf/lib\libm.a(lib_a-ef_rem_pio2.o)
 .debug_info    0x000000000000058b      0x1d2 C:/Users/spenc/Dropbox/N64_DEV_STUFF/n64dev/mips64-elf/lib\libm.a(lib_a-kf_cos.o)
 .debug_info    0x000000000000075d      0x2cf C:/Users/spenc/Dropbox/N64_DEV_STUFF/n64dev/mips64-elf/lib\libm.a(lib_a-kf_rem_pio2.o)
 .debug_info    0x0000000000000a2c      0x1ca C:/Users/spenc/Dropbox/N64_DEV_STUFF/n64dev/mips64-elf/lib\libm.a(lib_a-kf_sin.o)
 .debug_info    0x0000000000000bf6       0xc5 C:/Users/spenc/Dropbox/N64_DEV_STUFF/n64dev/mips64-elf/lib\libm.a(lib_a-sf_fabs.o)
 .debug_info    0x0000000000000cbb      0x117 C:/Users/spenc/Dropbox/N64_DEV_STUFF/n64dev/mips64-elf/lib\libm.a(lib_a-sf_floor.o)
 .debug_info    0x0000000000000dd2      0x148 C:/Users/spenc/Dropbox/N64_DEV_STUFF/n64dev/mips64-elf/lib\libm.a(lib_a-sf_scalbn.o)
 .debug_info    0x0000000000000f1a       0xdb C:/Users/spenc/Dropbox/N64_DEV_STUFF/n64dev/mips64-elf/lib\libm.a(lib_a-sf_copysign.o)
 .debug_info    0x0000000000000ff5      0x997 C:/Users/spenc/Dropbox/N64_DEV_STUFF/n64dev/mips64-elf/lib\libc.a(lib_a-malloc.o)
 .debug_info    0x000000000000198c      0xcfd C:/Users/spenc/Dropbox/N64_DEV_STUFF/n64dev/mips64-elf/lib\libc.a(lib_a-mallocr.o)
 .debug_info    0x0000000000002689      0x194 C:/Users/spenc/Dropbox/N64_DEV_STUFF/n64dev/mips64-elf/lib\libc.a(lib_a-memcpy.o)
 .debug_info    0x000000000000281d      0x13d C:/Users/spenc/Dropbox/N64_DEV_STUFF/n64dev/mips64-elf/lib\libc.a(lib_a-memset.o)
 .debug_info    0x000000000000295a      0x980 C:/Users/spenc/Dropbox/N64_DEV_STUFF/n64dev/mips64-elf/lib\libc.a(lib_a-mlock.o)
 .debug_info    0x00000000000032da      0x98f C:/Users/spenc/Dropbox/N64_DEV_STUFF/n64dev/mips64-elf/lib\libc.a(lib_a-sbrkr.o)
 .debug_info    0x0000000000003c69      0xa40 C:/Users/spenc/Dropbox/N64_DEV_STUFF/n64dev/mips64-elf/lib\libc.a(lib_a-sprintf.o)
 .debug_info    0x00000000000046a9      0x123 C:/Users/spenc/Dropbox/N64_DEV_STUFF/n64dev/mips64-elf/lib\libc.a(lib_a-strcmp.o)
 .debug_info    0x00000000000047cc      0x10e C:/Users/spenc/Dropbox/N64_DEV_STUFF/n64dev/mips64-elf/lib\libc.a(lib_a-strcpy.o)
 .debug_info    0x00000000000048da       0x76 C:/Users/spenc/Dropbox/N64_DEV_STUFF/n64dev/mips64-elf/lib\libc.a(lib_a-strlen.o)
 .debug_info    0x0000000000004950     0x1041 C:/Users/spenc/Dropbox/N64_DEV_STUFF/n64dev/mips64-elf/lib\libc.a(lib_a-svfprintf.o)
 .debug_info    0x0000000000005991      0xd94 C:/Users/spenc/Dropbox/N64_DEV_STUFF/n64dev/mips64-elf/lib\libc.a(lib_a-dtoa.o)
 .debug_info    0x0000000000006725      0xbf2 C:/Users/spenc/Dropbox/N64_DEV_STUFF/n64dev/mips64-elf/lib\libc.a(lib_a-freer.o)
 .debug_info    0x0000000000007317      0x968 C:/Users/spenc/Dropbox/N64_DEV_STUFF/n64dev/mips64-elf/lib\libc.a(lib_a-impure.o)
 .debug_info    0x0000000000007c7f      0xbd1 C:/Users/spenc/Dropbox/N64_DEV_STUFF/n64dev/mips64-elf/lib\libc.a(lib_a-locale.o)
 .debug_info    0x0000000000008850      0x123 C:/Users/spenc/Dropbox/N64_DEV_STUFF/n64dev/mips64-elf/lib\libc.a(lib_a-memchr.o)
 .debug_info    0x0000000000008973      0x140 C:/Users/spenc/Dropbox/N64_DEV_STUFF/n64dev/mips64-elf/lib\libc.a(lib_a-memmove.o)
 .debug_info    0x0000000000008ab3     0x152d C:/Users/spenc/Dropbox/N64_DEV_STUFF/n64dev/mips64-elf/lib\libc.a(lib_a-mprec.o)
 .debug_info    0x0000000000009fe0      0xbde C:/Users/spenc/Dropbox/N64_DEV_STUFF/n64dev/mips64-elf/lib\libc.a(lib_a-reallocr.o)
 .debug_info    0x000000000000abbe      0xa4c C:/Users/spenc/Dropbox/N64_DEV_STUFF/n64dev/mips64-elf/lib\libc.a(lib_a-reent.o)
 .debug_info    0x000000000000b60a      0x148 C:/Users/spenc/Dropbox/N64_DEV_STUFF/n64dev/mips64-elf/lib\libc.a(lib_a-s_isinfd.o)
 .debug_info    0x000000000000b752      0x144 C:/Users/spenc/Dropbox/N64_DEV_STUFF/n64dev/mips64-elf/lib\libc.a(lib_a-s_isnand.o)
 .debug_info    0x000000000000b896      0xa44 C:/Users/spenc/Dropbox/N64_DEV_STUFF/n64dev/mips64-elf/lib\libc.a(lib_a-callocr.o)

.debug_line     0x0000000000000000     0x35ba
 .debug_line    0x0000000000000000      0x169 C:/Users/spenc/Dropbox/N64_DEV_STUFF/n64dev/mips64-elf/lib\libm.a(lib_a-sf_cos.o)
 .debug_line    0x0000000000000169      0x169 C:/Users/spenc/Dropbox/N64_DEV_STUFF/n64dev/mips64-elf/lib\libm.a(lib_a-sf_sin.o)
 .debug_line    0x00000000000002d2      0x1a1 C:/Users/spenc/Dropbox/N64_DEV_STUFF/n64dev/mips64-elf/lib\libm.a(lib_a-ef_rem_pio2.o)
 .debug_line    0x0000000000000473      0x122 C:/Users/spenc/Dropbox/N64_DEV_STUFF/n64dev/mips64-elf/lib\libm.a(lib_a-kf_cos.o)
 .debug_line    0x0000000000000595      0x25f C:/Users/spenc/Dropbox/N64_DEV_STUFF/n64dev/mips64-elf/lib\libm.a(lib_a-kf_rem_pio2.o)
 .debug_line    0x00000000000007f4      0x118 C:/Users/spenc/Dropbox/N64_DEV_STUFF/n64dev/mips64-elf/lib\libm.a(lib_a-kf_sin.o)
 .debug_line    0x000000000000090c      0x101 C:/Users/spenc/Dropbox/N64_DEV_STUFF/n64dev/mips64-elf/lib\libm.a(lib_a-sf_fabs.o)
 .debug_line    0x0000000000000a0d      0x122 C:/Users/spenc/Dropbox/N64_DEV_STUFF/n64dev/mips64-elf/lib\libm.a(lib_a-sf_floor.o)
 .debug_line    0x0000000000000b2f      0x13f C:/Users/spenc/Dropbox/N64_DEV_STUFF/n64dev/mips64-elf/lib\libm.a(lib_a-sf_scalbn.o)
 .debug_line    0x0000000000000c6e      0x108 C:/Users/spenc/Dropbox/N64_DEV_STUFF/n64dev/mips64-elf/lib\libm.a(lib_a-sf_copysign.o)
 .debug_line    0x0000000000000d76      0x157 C:/Users/spenc/Dropbox/N64_DEV_STUFF/n64dev/mips64-elf/lib\libc.a(lib_a-malloc.o)
 .debug_line    0x0000000000000ecd      0x290 C:/Users/spenc/Dropbox/N64_DEV_STUFF/n64dev/mips64-elf/lib\libc.a(lib_a-mallocr.o)
 .debug_line    0x000000000000115d       0xfa C:/Users/spenc/Dropbox/N64_DEV_STUFF/n64dev/mips64-elf/lib\libc.a(lib_a-memcpy.o)
 .debug_line    0x0000000000001257      0x144 C:/Users/spenc/Dropbox/N64_DEV_STUFF/n64dev/mips64-elf/lib\libc.a(lib_a-memset.o)
 .debug_line    0x000000000000139b      0x10c C:/Users/spenc/Dropbox/N64_DEV_STUFF/n64dev/mips64-elf/lib\libc.a(lib_a-mlock.o)
 .debug_line    0x00000000000014a7      0x157 C:/Users/spenc/Dropbox/N64_DEV_STUFF/n64dev/mips64-elf/lib\libc.a(lib_a-sbrkr.o)
 .debug_line    0x00000000000015fe      0x197 C:/Users/spenc/Dropbox/N64_DEV_STUFF/n64dev/mips64-elf/lib\libc.a(lib_a-sprintf.o)
 .debug_line    0x0000000000001795       0xca C:/Users/spenc/Dropbox/N64_DEV_STUFF/n64dev/mips64-elf/lib\libc.a(lib_a-strcmp.o)
 .debug_line    0x000000000000185f       0xc4 C:/Users/spenc/Dropbox/N64_DEV_STUFF/n64dev/mips64-elf/lib\libc.a(lib_a-strcpy.o)
 .debug_line    0x0000000000001923       0x1d C:/Users/spenc/Dropbox/N64_DEV_STUFF/n64dev/mips64-elf/lib\libc.a(lib_a-strlen.o)
 .debug_line    0x0000000000001940      0x5bd C:/Users/spenc/Dropbox/N64_DEV_STUFF/n64dev/mips64-elf/lib\libc.a(lib_a-svfprintf.o)
 .debug_line    0x0000000000001efd      0x507 C:/Users/spenc/Dropbox/N64_DEV_STUFF/n64dev/mips64-elf/lib\libc.a(lib_a-dtoa.o)
 .debug_line    0x0000000000002404      0x1a9 C:/Users/spenc/Dropbox/N64_DEV_STUFF/n64dev/mips64-elf/lib\libc.a(lib_a-freer.o)
 .debug_line    0x00000000000025ad       0xfa C:/Users/spenc/Dropbox/N64_DEV_STUFF/n64dev/mips64-elf/lib\libc.a(lib_a-impure.o)
 .debug_line    0x00000000000026a7      0x183 C:/Users/spenc/Dropbox/N64_DEV_STUFF/n64dev/mips64-elf/lib\libc.a(lib_a-locale.o)
 .debug_line    0x000000000000282a      0x112 C:/Users/spenc/Dropbox/N64_DEV_STUFF/n64dev/mips64-elf/lib\libc.a(lib_a-memchr.o)
 .debug_line    0x000000000000293c      0x15b C:/Users/spenc/Dropbox/N64_DEV_STUFF/n64dev/mips64-elf/lib\libc.a(lib_a-memmove.o)
 .debug_line    0x0000000000002a97      0x4b1 C:/Users/spenc/Dropbox/N64_DEV_STUFF/n64dev/mips64-elf/lib\libc.a(lib_a-mprec.o)
 .debug_line    0x0000000000002f48      0x1d2 C:/Users/spenc/Dropbox/N64_DEV_STUFF/n64dev/mips64-elf/lib\libc.a(lib_a-reallocr.o)
 .debug_line    0x000000000000311a      0x157 C:/Users/spenc/Dropbox/N64_DEV_STUFF/n64dev/mips64-elf/lib\libc.a(lib_a-reent.o)
 .debug_line    0x0000000000003271      0x115 C:/Users/spenc/Dropbox/N64_DEV_STUFF/n64dev/mips64-elf/lib\libc.a(lib_a-s_isinfd.o)
 .debug_line    0x0000000000003386      0x115 C:/Users/spenc/Dropbox/N64_DEV_STUFF/n64dev/mips64-elf/lib\libc.a(lib_a-s_isnand.o)
 .debug_line    0x000000000000349b      0x11f C:/Users/spenc/Dropbox/N64_DEV_STUFF/n64dev/mips64-elf/lib\libc.a(lib_a-callocr.o)

.debug_loc      0x0000000000000000     0x6b1a
 .debug_loc     0x0000000000000000       0x72 C:/Users/spenc/Dropbox/N64_DEV_STUFF/n64dev/mips64-elf/lib\libm.a(lib_a-sf_cos.o)
 .debug_loc     0x0000000000000072       0x72 C:/Users/spenc/Dropbox/N64_DEV_STUFF/n64dev/mips64-elf/lib\libm.a(lib_a-sf_sin.o)
 .debug_loc     0x00000000000000e4      0x2e0 C:/Users/spenc/Dropbox/N64_DEV_STUFF/n64dev/mips64-elf/lib\libm.a(lib_a-ef_rem_pio2.o)
 .debug_loc     0x00000000000003c4      0x10b C:/Users/spenc/Dropbox/N64_DEV_STUFF/n64dev/mips64-elf/lib\libm.a(lib_a-kf_cos.o)
 .debug_loc     0x00000000000004cf      0x618 C:/Users/spenc/Dropbox/N64_DEV_STUFF/n64dev/mips64-elf/lib\libm.a(lib_a-kf_rem_pio2.o)
 .debug_loc     0x0000000000000ae7       0xb2 C:/Users/spenc/Dropbox/N64_DEV_STUFF/n64dev/mips64-elf/lib\libm.a(lib_a-kf_sin.o)
 .debug_loc     0x0000000000000b99      0x112 C:/Users/spenc/Dropbox/N64_DEV_STUFF/n64dev/mips64-elf/lib\libm.a(lib_a-sf_floor.o)
 .debug_loc     0x0000000000000cab      0x11b C:/Users/spenc/Dropbox/N64_DEV_STUFF/n64dev/mips64-elf/lib\libm.a(lib_a-sf_scalbn.o)
 .debug_loc     0x0000000000000dc6       0x3c C:/Users/spenc/Dropbox/N64_DEV_STUFF/n64dev/mips64-elf/lib\libc.a(lib_a-malloc.o)
 .debug_loc     0x0000000000000e02      0x8c6 C:/Users/spenc/Dropbox/N64_DEV_STUFF/n64dev/mips64-elf/lib\libc.a(lib_a-mallocr.o)
 .debug_loc     0x00000000000016c8      0x244 C:/Users/spenc/Dropbox/N64_DEV_STUFF/n64dev/mips64-elf/lib\libc.a(lib_a-memcpy.o)
 .debug_loc     0x000000000000190c       0xf3 C:/Users/spenc/Dropbox/N64_DEV_STUFF/n64dev/mips64-elf/lib\libc.a(lib_a-memset.o)
 .debug_loc     0x00000000000019ff       0x6e C:/Users/spenc/Dropbox/N64_DEV_STUFF/n64dev/mips64-elf/lib\libc.a(lib_a-sbrkr.o)
 .debug_loc     0x0000000000001a6d       0x9f C:/Users/spenc/Dropbox/N64_DEV_STUFF/n64dev/mips64-elf/lib\libc.a(lib_a-sprintf.o)
 .debug_loc     0x0000000000001b0c       0xbf C:/Users/spenc/Dropbox/N64_DEV_STUFF/n64dev/mips64-elf/lib\libc.a(lib_a-strcmp.o)
 .debug_loc     0x0000000000001bcb       0x9e C:/Users/spenc/Dropbox/N64_DEV_STUFF/n64dev/mips64-elf/lib\libc.a(lib_a-strcpy.o)
 .debug_loc     0x0000000000001c69     0x16d2 C:/Users/spenc/Dropbox/N64_DEV_STUFF/n64dev/mips64-elf/lib\libc.a(lib_a-svfprintf.o)
 .debug_loc     0x000000000000333b     0x1370 C:/Users/spenc/Dropbox/N64_DEV_STUFF/n64dev/mips64-elf/lib\libc.a(lib_a-dtoa.o)
 .debug_loc     0x00000000000046ab      0x424 C:/Users/spenc/Dropbox/N64_DEV_STUFF/n64dev/mips64-elf/lib\libc.a(lib_a-freer.o)
 .debug_loc     0x0000000000004acf       0xed C:/Users/spenc/Dropbox/N64_DEV_STUFF/n64dev/mips64-elf/lib\libc.a(lib_a-locale.o)
 .debug_loc     0x0000000000004bbc       0xca C:/Users/spenc/Dropbox/N64_DEV_STUFF/n64dev/mips64-elf/lib\libc.a(lib_a-memchr.o)
 .debug_loc     0x0000000000004c86      0x18a C:/Users/spenc/Dropbox/N64_DEV_STUFF/n64dev/mips64-elf/lib\libc.a(lib_a-memmove.o)
 .debug_loc     0x0000000000004e10     0x1303 C:/Users/spenc/Dropbox/N64_DEV_STUFF/n64dev/mips64-elf/lib\libc.a(lib_a-mprec.o)
 .debug_loc     0x0000000000006113      0x71d C:/Users/spenc/Dropbox/N64_DEV_STUFF/n64dev/mips64-elf/lib\libc.a(lib_a-reallocr.o)
 .debug_loc     0x0000000000006830      0x1de C:/Users/spenc/Dropbox/N64_DEV_STUFF/n64dev/mips64-elf/lib\libc.a(lib_a-reent.o)
 .debug_loc     0x0000000000006a0e       0x3c C:/Users/spenc/Dropbox/N64_DEV_STUFF/n64dev/mips64-elf/lib\libc.a(lib_a-s_isinfd.o)
 .debug_loc     0x0000000000006a4a       0x29 C:/Users/spenc/Dropbox/N64_DEV_STUFF/n64dev/mips64-elf/lib\libc.a(lib_a-s_isnand.o)
 .debug_loc     0x0000000000006a73       0xa7 C:/Users/spenc/Dropbox/N64_DEV_STUFF/n64dev/mips64-elf/lib\libc.a(lib_a-callocr.o)

.debug_pubnames
                0x0000000000000000      0x6e7
 .debug_pubnames
                0x0000000000000000       0x1b C:/Users/spenc/Dropbox/N64_DEV_STUFF/n64dev/mips64-elf/lib\libm.a(lib_a-sf_cos.o)
 .debug_pubnames
                0x000000000000001b       0x1b C:/Users/spenc/Dropbox/N64_DEV_STUFF/n64dev/mips64-elf/lib\libm.a(lib_a-sf_sin.o)
 .debug_pubnames
                0x0000000000000036       0x2a C:/Users/spenc/Dropbox/N64_DEV_STUFF/n64dev/mips64-elf/lib\libm.a(lib_a-ef_rem_pio2.o)
 .debug_pubnames
                0x0000000000000060       0x24 C:/Users/spenc/Dropbox/N64_DEV_STUFF/n64dev/mips64-elf/lib\libm.a(lib_a-kf_cos.o)
 .debug_pubnames
                0x0000000000000084       0x29 C:/Users/spenc/Dropbox/N64_DEV_STUFF/n64dev/mips64-elf/lib\libm.a(lib_a-kf_rem_pio2.o)
 .debug_pubnames
                0x00000000000000ad       0x24 C:/Users/spenc/Dropbox/N64_DEV_STUFF/n64dev/mips64-elf/lib\libm.a(lib_a-kf_sin.o)
 .debug_pubnames
                0x00000000000000d1       0x1c C:/Users/spenc/Dropbox/N64_DEV_STUFF/n64dev/mips64-elf/lib\libm.a(lib_a-sf_fabs.o)
 .debug_pubnames
                0x00000000000000ed       0x1d C:/Users/spenc/Dropbox/N64_DEV_STUFF/n64dev/mips64-elf/lib\libm.a(lib_a-sf_floor.o)
 .debug_pubnames
                0x000000000000010a       0x1e C:/Users/spenc/Dropbox/N64_DEV_STUFF/n64dev/mips64-elf/lib\libm.a(lib_a-sf_scalbn.o)
 .debug_pubnames
                0x0000000000000128       0x20 C:/Users/spenc/Dropbox/N64_DEV_STUFF/n64dev/mips64-elf/lib\libm.a(lib_a-sf_copysign.o)
 .debug_pubnames
                0x0000000000000148       0x26 C:/Users/spenc/Dropbox/N64_DEV_STUFF/n64dev/mips64-elf/lib\libc.a(lib_a-malloc.o)
 .debug_pubnames
                0x000000000000016e       0xce C:/Users/spenc/Dropbox/N64_DEV_STUFF/n64dev/mips64-elf/lib\libc.a(lib_a-mallocr.o)
 .debug_pubnames
                0x000000000000023c       0x1d C:/Users/spenc/Dropbox/N64_DEV_STUFF/n64dev/mips64-elf/lib\libc.a(lib_a-memcpy.o)
 .debug_pubnames
                0x0000000000000259       0x1d C:/Users/spenc/Dropbox/N64_DEV_STUFF/n64dev/mips64-elf/lib\libc.a(lib_a-memset.o)
 .debug_pubnames
                0x0000000000000276       0x38 C:/Users/spenc/Dropbox/N64_DEV_STUFF/n64dev/mips64-elf/lib\libc.a(lib_a-mlock.o)
 .debug_pubnames
                0x00000000000002ae       0x1e C:/Users/spenc/Dropbox/N64_DEV_STUFF/n64dev/mips64-elf/lib\libc.a(lib_a-sbrkr.o)
 .debug_pubnames
                0x00000000000002cc       0x2d C:/Users/spenc/Dropbox/N64_DEV_STUFF/n64dev/mips64-elf/lib\libc.a(lib_a-sprintf.o)
 .debug_pubnames
                0x00000000000002f9       0x1d C:/Users/spenc/Dropbox/N64_DEV_STUFF/n64dev/mips64-elf/lib\libc.a(lib_a-strcmp.o)
 .debug_pubnames
                0x0000000000000316       0x1d C:/Users/spenc/Dropbox/N64_DEV_STUFF/n64dev/mips64-elf/lib\libc.a(lib_a-strcpy.o)
 .debug_pubnames
                0x0000000000000333       0x23 C:/Users/spenc/Dropbox/N64_DEV_STUFF/n64dev/mips64-elf/lib\libc.a(lib_a-svfprintf.o)
 .debug_pubnames
                0x0000000000000356       0x1e C:/Users/spenc/Dropbox/N64_DEV_STUFF/n64dev/mips64-elf/lib\libc.a(lib_a-dtoa.o)
 .debug_pubnames
                0x0000000000000374       0x31 C:/Users/spenc/Dropbox/N64_DEV_STUFF/n64dev/mips64-elf/lib\libc.a(lib_a-freer.o)
 .debug_pubnames
                0x00000000000003a5       0x39 C:/Users/spenc/Dropbox/N64_DEV_STUFF/n64dev/mips64-elf/lib\libc.a(lib_a-impure.o)
 .debug_pubnames
                0x00000000000003de       0xc3 C:/Users/spenc/Dropbox/N64_DEV_STUFF/n64dev/mips64-elf/lib\libc.a(lib_a-locale.o)
 .debug_pubnames
                0x00000000000004a1       0x1d C:/Users/spenc/Dropbox/N64_DEV_STUFF/n64dev/mips64-elf/lib\libc.a(lib_a-memchr.o)
 .debug_pubnames
                0x00000000000004be       0x1e C:/Users/spenc/Dropbox/N64_DEV_STUFF/n64dev/mips64-elf/lib\libc.a(lib_a-memmove.o)
 .debug_pubnames
                0x00000000000004dc      0x13a C:/Users/spenc/Dropbox/N64_DEV_STUFF/n64dev/mips64-elf/lib\libc.a(lib_a-mprec.o)
 .debug_pubnames
                0x0000000000000616       0x21 C:/Users/spenc/Dropbox/N64_DEV_STUFF/n64dev/mips64-elf/lib\libc.a(lib_a-reallocr.o)
 .debug_pubnames
                0x0000000000000637       0x52 C:/Users/spenc/Dropbox/N64_DEV_STUFF/n64dev/mips64-elf/lib\libc.a(lib_a-reent.o)
 .debug_pubnames
                0x0000000000000689       0x1f C:/Users/spenc/Dropbox/N64_DEV_STUFF/n64dev/mips64-elf/lib\libc.a(lib_a-s_isinfd.o)
 .debug_pubnames
                0x00000000000006a8       0x1f C:/Users/spenc/Dropbox/N64_DEV_STUFF/n64dev/mips64-elf/lib\libc.a(lib_a-s_isnand.o)
 .debug_pubnames
                0x00000000000006c7       0x20 C:/Users/spenc/Dropbox/N64_DEV_STUFF/n64dev/mips64-elf/lib\libc.a(lib_a-callocr.o)

.debug_aranges  0x0000000000000000      0x3e0
 .debug_aranges
                0x0000000000000000       0x20 C:/Users/spenc/Dropbox/N64_DEV_STUFF/n64dev/mips64-elf/lib\libm.a(lib_a-sf_cos.o)
 .debug_aranges
                0x0000000000000020       0x20 C:/Users/spenc/Dropbox/N64_DEV_STUFF/n64dev/mips64-elf/lib\libm.a(lib_a-sf_sin.o)
 .debug_aranges
                0x0000000000000040       0x20 C:/Users/spenc/Dropbox/N64_DEV_STUFF/n64dev/mips64-elf/lib\libm.a(lib_a-ef_rem_pio2.o)
 .debug_aranges
                0x0000000000000060       0x20 C:/Users/spenc/Dropbox/N64_DEV_STUFF/n64dev/mips64-elf/lib\libm.a(lib_a-kf_cos.o)
 .debug_aranges
                0x0000000000000080       0x20 C:/Users/spenc/Dropbox/N64_DEV_STUFF/n64dev/mips64-elf/lib\libm.a(lib_a-kf_rem_pio2.o)
 .debug_aranges
                0x00000000000000a0       0x20 C:/Users/spenc/Dropbox/N64_DEV_STUFF/n64dev/mips64-elf/lib\libm.a(lib_a-kf_sin.o)
 .debug_aranges
                0x00000000000000c0       0x20 C:/Users/spenc/Dropbox/N64_DEV_STUFF/n64dev/mips64-elf/lib\libm.a(lib_a-sf_fabs.o)
 .debug_aranges
                0x00000000000000e0       0x20 C:/Users/spenc/Dropbox/N64_DEV_STUFF/n64dev/mips64-elf/lib\libm.a(lib_a-sf_floor.o)
 .debug_aranges
                0x0000000000000100       0x20 C:/Users/spenc/Dropbox/N64_DEV_STUFF/n64dev/mips64-elf/lib\libm.a(lib_a-sf_scalbn.o)
 .debug_aranges
                0x0000000000000120       0x20 C:/Users/spenc/Dropbox/N64_DEV_STUFF/n64dev/mips64-elf/lib\libm.a(lib_a-sf_copysign.o)
 .debug_aranges
                0x0000000000000140       0x20 C:/Users/spenc/Dropbox/N64_DEV_STUFF/n64dev/mips64-elf/lib\libc.a(lib_a-malloc.o)
 .debug_aranges
                0x0000000000000160       0x20 C:/Users/spenc/Dropbox/N64_DEV_STUFF/n64dev/mips64-elf/lib\libc.a(lib_a-mallocr.o)
 .debug_aranges
                0x0000000000000180       0x20 C:/Users/spenc/Dropbox/N64_DEV_STUFF/n64dev/mips64-elf/lib\libc.a(lib_a-memcpy.o)
 .debug_aranges
                0x00000000000001a0       0x20 C:/Users/spenc/Dropbox/N64_DEV_STUFF/n64dev/mips64-elf/lib\libc.a(lib_a-memset.o)
 .debug_aranges
                0x00000000000001c0       0x20 C:/Users/spenc/Dropbox/N64_DEV_STUFF/n64dev/mips64-elf/lib\libc.a(lib_a-mlock.o)
 .debug_aranges
                0x00000000000001e0       0x20 C:/Users/spenc/Dropbox/N64_DEV_STUFF/n64dev/mips64-elf/lib\libc.a(lib_a-sbrkr.o)
 .debug_aranges
                0x0000000000000200       0x20 C:/Users/spenc/Dropbox/N64_DEV_STUFF/n64dev/mips64-elf/lib\libc.a(lib_a-sprintf.o)
 .debug_aranges
                0x0000000000000220       0x20 C:/Users/spenc/Dropbox/N64_DEV_STUFF/n64dev/mips64-elf/lib\libc.a(lib_a-strcmp.o)
 .debug_aranges
                0x0000000000000240       0x20 C:/Users/spenc/Dropbox/N64_DEV_STUFF/n64dev/mips64-elf/lib\libc.a(lib_a-strcpy.o)
 .debug_aranges
                0x0000000000000260       0x20 C:/Users/spenc/Dropbox/N64_DEV_STUFF/n64dev/mips64-elf/lib\libc.a(lib_a-svfprintf.o)
 .debug_aranges
                0x0000000000000280       0x20 C:/Users/spenc/Dropbox/N64_DEV_STUFF/n64dev/mips64-elf/lib\libc.a(lib_a-dtoa.o)
 .debug_aranges
                0x00000000000002a0       0x20 C:/Users/spenc/Dropbox/N64_DEV_STUFF/n64dev/mips64-elf/lib\libc.a(lib_a-freer.o)
 .debug_aranges
                0x00000000000002c0       0x20 C:/Users/spenc/Dropbox/N64_DEV_STUFF/n64dev/mips64-elf/lib\libc.a(lib_a-locale.o)
 .debug_aranges
                0x00000000000002e0       0x20 C:/Users/spenc/Dropbox/N64_DEV_STUFF/n64dev/mips64-elf/lib\libc.a(lib_a-memchr.o)
 .debug_aranges
                0x0000000000000300       0x20 C:/Users/spenc/Dropbox/N64_DEV_STUFF/n64dev/mips64-elf/lib\libc.a(lib_a-memmove.o)
 .debug_aranges
                0x0000000000000320       0x20 C:/Users/spenc/Dropbox/N64_DEV_STUFF/n64dev/mips64-elf/lib\libc.a(lib_a-mprec.o)
 .debug_aranges
                0x0000000000000340       0x20 C:/Users/spenc/Dropbox/N64_DEV_STUFF/n64dev/mips64-elf/lib\libc.a(lib_a-reallocr.o)
 .debug_aranges
                0x0000000000000360       0x20 C:/Users/spenc/Dropbox/N64_DEV_STUFF/n64dev/mips64-elf/lib\libc.a(lib_a-reent.o)
 .debug_aranges
                0x0000000000000380       0x20 C:/Users/spenc/Dropbox/N64_DEV_STUFF/n64dev/mips64-elf/lib\libc.a(lib_a-s_isinfd.o)
 .debug_aranges
                0x00000000000003a0       0x20 C:/Users/spenc/Dropbox/N64_DEV_STUFF/n64dev/mips64-elf/lib\libc.a(lib_a-s_isnand.o)
 .debug_aranges
                0x00000000000003c0       0x20 C:/Users/spenc/Dropbox/N64_DEV_STUFF/n64dev/mips64-elf/lib\libc.a(lib_a-callocr.o)

.debug_str      0x0000000000000000     0x1687
 .debug_str     0x0000000000000000      0x11a C:/Users/spenc/Dropbox/N64_DEV_STUFF/n64dev/mips64-elf/lib\libm.a(lib_a-sf_cos.o)
                                        0x165 (size before relaxing)
 .debug_str     0x000000000000011a       0x37 C:/Users/spenc/Dropbox/N64_DEV_STUFF/n64dev/mips64-elf/lib\libm.a(lib_a-sf_sin.o)
                                        0x165 (size before relaxing)
 .debug_str     0x0000000000000151       0xae C:/Users/spenc/Dropbox/N64_DEV_STUFF/n64dev/mips64-elf/lib\libm.a(lib_a-ef_rem_pio2.o)
                                        0x1d7 (size before relaxing)
 .debug_str     0x00000000000001ff       0x45 C:/Users/spenc/Dropbox/N64_DEV_STUFF/n64dev/mips64-elf/lib\libm.a(lib_a-kf_cos.o)
                                        0x16e (size before relaxing)
 .debug_str     0x0000000000000244       0x78 C:/Users/spenc/Dropbox/N64_DEV_STUFF/n64dev/mips64-elf/lib\libm.a(lib_a-kf_rem_pio2.o)
                                        0x17f (size before relaxing)
 .debug_str     0x00000000000002bc       0x45 C:/Users/spenc/Dropbox/N64_DEV_STUFF/n64dev/mips64-elf/lib\libm.a(lib_a-kf_sin.o)
                                        0x173 (size before relaxing)
 .debug_str     0x0000000000000301       0x3e C:/Users/spenc/Dropbox/N64_DEV_STUFF/n64dev/mips64-elf/lib\libm.a(lib_a-sf_fabs.o)
                                        0x137 (size before relaxing)
 .debug_str     0x000000000000033f       0x45 C:/Users/spenc/Dropbox/N64_DEV_STUFF/n64dev/mips64-elf/lib\libm.a(lib_a-sf_floor.o)
                                        0x148 (size before relaxing)
 .debug_str     0x0000000000000384       0x98 C:/Users/spenc/Dropbox/N64_DEV_STUFF/n64dev/mips64-elf/lib\libm.a(lib_a-sf_scalbn.o)
                                        0x160 (size before relaxing)
 .debug_str     0x000000000000041c       0x48 C:/Users/spenc/Dropbox/N64_DEV_STUFF/n64dev/mips64-elf/lib\libm.a(lib_a-sf_copysign.o)
                                        0x143 (size before relaxing)
 .debug_str     0x0000000000000464      0x405 C:/Users/spenc/Dropbox/N64_DEV_STUFF/n64dev/mips64-elf/lib\libc.a(lib_a-malloc.o)
                                        0x4ea (size before relaxing)
 .debug_str     0x0000000000000869      0x206 C:/Users/spenc/Dropbox/N64_DEV_STUFF/n64dev/mips64-elf/lib\libc.a(lib_a-mallocr.o)
                                        0x6bf (size before relaxing)
 .debug_str     0x0000000000000a6f       0xe1 C:/Users/spenc/Dropbox/N64_DEV_STUFF/n64dev/mips64-elf/lib\libc.a(lib_a-memcpy.o)
                                        0x114 (size before relaxing)
 .debug_str     0x0000000000000b50       0x72 C:/Users/spenc/Dropbox/N64_DEV_STUFF/n64dev/mips64-elf/lib\libc.a(lib_a-memset.o)
                                        0x15b (size before relaxing)
 .debug_str     0x0000000000000bc2       0x6b C:/Users/spenc/Dropbox/N64_DEV_STUFF/n64dev/mips64-elf/lib\libc.a(lib_a-mlock.o)
                                        0x4f1 (size before relaxing)
 .debug_str     0x0000000000000c2d       0x8f C:/Users/spenc/Dropbox/N64_DEV_STUFF/n64dev/mips64-elf/lib\libc.a(lib_a-sbrkr.o)
                                        0x4d9 (size before relaxing)
 .debug_str     0x0000000000000cbc       0xae C:/Users/spenc/Dropbox/N64_DEV_STUFF/n64dev/mips64-elf/lib\libc.a(lib_a-sprintf.o)
                                        0x50b (size before relaxing)
 .debug_str     0x0000000000000d6a       0x4e C:/Users/spenc/Dropbox/N64_DEV_STUFF/n64dev/mips64-elf/lib\libc.a(lib_a-strcmp.o)
                                        0x12b (size before relaxing)
 .debug_str     0x0000000000000db8       0x82 C:/Users/spenc/Dropbox/N64_DEV_STUFF/n64dev/mips64-elf/lib\libc.a(lib_a-strcpy.o)
                                        0x139 (size before relaxing)
 .debug_str     0x0000000000000e3a       0x42 C:/Users/spenc/Dropbox/N64_DEV_STUFF/n64dev/mips64-elf/lib\libc.a(lib_a-strlen.o)
                                        0x11f (size before relaxing)
 .debug_str     0x0000000000000e7c      0x189 C:/Users/spenc/Dropbox/N64_DEV_STUFF/n64dev/mips64-elf/lib\libc.a(lib_a-svfprintf.o)
                                        0x6a1 (size before relaxing)
 .debug_str     0x0000000000001005       0xf5 C:/Users/spenc/Dropbox/N64_DEV_STUFF/n64dev/mips64-elf/lib\libc.a(lib_a-dtoa.o)
                                        0x5cf (size before relaxing)
 .debug_str     0x00000000000010fa       0x3c C:/Users/spenc/Dropbox/N64_DEV_STUFF/n64dev/mips64-elf/lib\libc.a(lib_a-freer.o)
                                        0x611 (size before relaxing)
 .debug_str     0x0000000000001136       0x57 C:/Users/spenc/Dropbox/N64_DEV_STUFF/n64dev/mips64-elf/lib\libc.a(lib_a-impure.o)
                                        0x4e8 (size before relaxing)
 .debug_str     0x000000000000118d      0x1d9 C:/Users/spenc/Dropbox/N64_DEV_STUFF/n64dev/mips64-elf/lib\libc.a(lib_a-locale.o)
                                        0x677 (size before relaxing)
 .debug_str     0x0000000000001366       0x53 C:/Users/spenc/Dropbox/N64_DEV_STUFF/n64dev/mips64-elf/lib\libc.a(lib_a-memchr.o)
                                        0x138 (size before relaxing)
 .debug_str     0x00000000000013b9       0x4b C:/Users/spenc/Dropbox/N64_DEV_STUFF/n64dev/mips64-elf/lib\libc.a(lib_a-memmove.o)
                                        0x151 (size before relaxing)
 .debug_str     0x0000000000001404       0xf6 C:/Users/spenc/Dropbox/N64_DEV_STUFF/n64dev/mips64-elf/lib\libc.a(lib_a-mprec.o)
                                        0x5dc (size before relaxing)
 .debug_str     0x00000000000014fa       0x59 C:/Users/spenc/Dropbox/N64_DEV_STUFF/n64dev/mips64-elf/lib\libc.a(lib_a-reallocr.o)
                                        0x591 (size before relaxing)
 .debug_str     0x0000000000001553       0x71 C:/Users/spenc/Dropbox/N64_DEV_STUFF/n64dev/mips64-elf/lib\libc.a(lib_a-reent.o)
                                        0x50d (size before relaxing)
 .debug_str     0x00000000000015c4       0x66 C:/Users/spenc/Dropbox/N64_DEV_STUFF/n64dev/mips64-elf/lib\libc.a(lib_a-s_isinfd.o)
                                        0x171 (size before relaxing)
 .debug_str     0x000000000000162a       0x44 C:/Users/spenc/Dropbox/N64_DEV_STUFF/n64dev/mips64-elf/lib\libc.a(lib_a-s_isnand.o)
                                        0x171 (size before relaxing)
 .debug_str     0x000000000000166e       0x19 C:/Users/spenc/Dropbox/N64_DEV_STUFF/n64dev/mips64-elf/lib\libc.a(lib_a-callocr.o)
                                        0x510 (size before relaxing)

.debug_ranges   0x0000000000000000      0x268
 .debug_ranges  0x0000000000000000       0x60 C:/Users/spenc/Dropbox/N64_DEV_STUFF/n64dev/mips64-elf/lib\libc.a(lib_a-mallocr.o)
 .debug_ranges  0x0000000000000060       0xc8 C:/Users/spenc/Dropbox/N64_DEV_STUFF/n64dev/mips64-elf/lib\libc.a(lib_a-svfprintf.o)
 .debug_ranges  0x0000000000000128       0x88 C:/Users/spenc/Dropbox/N64_DEV_STUFF/n64dev/mips64-elf/lib\libc.a(lib_a-mprec.o)
 .debug_ranges  0x00000000000001b0       0x70 C:/Users/spenc/Dropbox/N64_DEV_STUFF/n64dev/mips64-elf/lib\libc.a(lib_a-reallocr.o)
 .debug_ranges  0x0000000000000220       0x18 C:/Users/spenc/Dropbox/N64_DEV_STUFF/n64dev/mips64-elf/lib\libc.a(lib_a-s_isinfd.o)
 .debug_ranges  0x0000000000000238       0x18 C:/Users/spenc/Dropbox/N64_DEV_STUFF/n64dev/mips64-elf/lib\libc.a(lib_a-s_isnand.o)
 .debug_ranges  0x0000000000000250       0x18 C:/Users/spenc/Dropbox/N64_DEV_STUFF/n64dev/mips64-elf/lib\libc.a(lib_a-callocr.o)
